ARM GAS  /var/folders/m5/1z2v3_dd2cg5xnclvhns6x640000gn/T//cc2aMuMW.s 			page 1


   1              		.syntax unified
   2              		.cpu cortex-m4
   3              		.eabi_attribute 27, 3
   4              		.eabi_attribute 28, 1
   5              		.fpu fpv4-sp-d16
   6              		.eabi_attribute 20, 1
   7              		.eabi_attribute 21, 1
   8              		.eabi_attribute 23, 3
   9              		.eabi_attribute 24, 1
  10              		.eabi_attribute 25, 1
  11              		.eabi_attribute 26, 1
  12              		.eabi_attribute 30, 1
  13              		.eabi_attribute 34, 1
  14              		.eabi_attribute 18, 4
  15              		.thumb
  16              		.file	"main.c"
  17              		.text
  18              	.Ltext0:
  19              		.cfi_sections	.debug_frame
  20              		.section	.text.PreMainInner,"ax",%progbits
  21              		.align	2
  22              		.global	PreMainInner
  23              		.thumb
  24              		.thumb_func
  26              	PreMainInner:
  27              	.LFB125:
  28              		.file 1 "Src/nimcache/main.c"
   1:Src/nimcache/main.c **** /* Generated by Nim Compiler v0.17.2 */
   2:Src/nimcache/main.c **** /*   (c) 2017 Andreas Rumpf */
   3:Src/nimcache/main.c **** /* The generated code is subject to the original license. */
   4:Src/nimcache/main.c **** #define NIM_NEW_MANGLING_RULES
   5:Src/nimcache/main.c **** #define NIM_INTBITS 32
   6:Src/nimcache/main.c **** 
   7:Src/nimcache/main.c **** #include "nimbase.h"
   8:Src/nimcache/main.c **** #include "stm32f4xx_hal.h"
   9:Src/nimcache/main.c **** #undef LANGUAGE_C
  10:Src/nimcache/main.c **** #undef MIPSEB
  11:Src/nimcache/main.c **** #undef MIPSEL
  12:Src/nimcache/main.c **** #undef PPC
  13:Src/nimcache/main.c **** #undef R3000
  14:Src/nimcache/main.c **** #undef R4000
  15:Src/nimcache/main.c **** #undef i386
  16:Src/nimcache/main.c **** #undef linux
  17:Src/nimcache/main.c **** #undef mips
  18:Src/nimcache/main.c **** #undef near
  19:Src/nimcache/main.c **** #undef powerpc
  20:Src/nimcache/main.c **** #undef unix
  21:Src/nimcache/main.c **** N_NIMCALL(void, main_init)(void);
  22:Src/nimcache/main.c **** N_NIMCALL(void, LED1_tick)(void);
  23:Src/nimcache/main.c **** NIM_EXTERNC N_NOINLINE(void, systemInit000)(void);
  24:Src/nimcache/main.c **** NIM_EXTERNC N_NOINLINE(void, systemDatInit000)(void);
  25:Src/nimcache/main.c **** NIM_EXTERNC N_NOINLINE(void, NimMainModule)(void);
  26:Src/nimcache/main.c **** NIM_EXTERNC N_NOINLINE(void, mainDatInit000)(void);
  27:Src/nimcache/main.c **** void PreMainInner(void) {
  29              		.loc 1 27 0
  30              		.cfi_startproc
  31              		@ args = 0, pretend = 0, frame = 0
ARM GAS  /var/folders/m5/1z2v3_dd2cg5xnclvhns6x640000gn/T//cc2aMuMW.s 			page 2


  32              		@ frame_needed = 0, uses_anonymous_args = 0
  33 0000 08B5     		push	{r3, lr}
  34              	.LCFI0:
  35              		.cfi_def_cfa_offset 8
  36              		.cfi_offset 3, -8
  37              		.cfi_offset 14, -4
  28:Src/nimcache/main.c **** 	systemInit000();
  38              		.loc 1 28 0
  39 0002 FFF7FEFF 		bl	systemInit000
  40              	.LVL0:
  41 0006 08BD     		pop	{r3, pc}
  42              		.cfi_endproc
  43              	.LFE125:
  45              		.section	.text.PreMain,"ax",%progbits
  46              		.align	2
  47              		.global	PreMain
  48              		.thumb
  49              		.thumb_func
  51              	PreMain:
  52              	.LFB126:
  29:Src/nimcache/main.c **** 	mainDatInit000();
  30:Src/nimcache/main.c **** }
  31:Src/nimcache/main.c **** 
  32:Src/nimcache/main.c **** void PreMain(void) {
  53              		.loc 1 32 0
  54              		.cfi_startproc
  55              		@ args = 0, pretend = 0, frame = 8
  56              		@ frame_needed = 0, uses_anonymous_args = 0
  57 0000 00B5     		push	{lr}
  58              	.LCFI1:
  59              		.cfi_def_cfa_offset 4
  60              		.cfi_offset 14, -4
  61 0002 83B0     		sub	sp, sp, #12
  62              	.LCFI2:
  63              		.cfi_def_cfa_offset 16
  33:Src/nimcache/main.c **** 	void (*volatile inner)(void);
  34:Src/nimcache/main.c **** 	systemDatInit000();
  64              		.loc 1 34 0
  65 0004 FFF7FEFF 		bl	systemDatInit000
  66              	.LVL1:
  35:Src/nimcache/main.c **** 	inner = PreMainInner;
  67              		.loc 1 35 0
  68 0008 034B     		ldr	r3, .L3
  69 000a 0193     		str	r3, [sp, #4]
  36:Src/nimcache/main.c **** 	(*inner)();
  70              		.loc 1 36 0
  71 000c 019B     		ldr	r3, [sp, #4]
  72 000e 9847     		blx	r3
  73              	.LVL2:
  37:Src/nimcache/main.c **** }
  74              		.loc 1 37 0
  75 0010 03B0     		add	sp, sp, #12
  76              		@ sp needed
  77 0012 5DF804FB 		ldr	pc, [sp], #4
  78              	.L4:
  79 0016 00BF     		.align	2
  80              	.L3:
ARM GAS  /var/folders/m5/1z2v3_dd2cg5xnclvhns6x640000gn/T//cc2aMuMW.s 			page 3


  81 0018 00000000 		.word	PreMainInner
  82              		.cfi_endproc
  83              	.LFE126:
  85              		.section	.text.NimMain,"ax",%progbits
  86              		.align	2
  87              		.global	NimMain
  88              		.thumb
  89              		.thumb_func
  91              	NimMain:
  92              	.LFB128:
  38:Src/nimcache/main.c **** 
  39:Src/nimcache/main.c **** int cmdCount;
  40:Src/nimcache/main.c **** char** cmdLine;
  41:Src/nimcache/main.c **** char** gEnv;
  42:Src/nimcache/main.c **** N_CDECL(void, NimMainInner)(void) {
  43:Src/nimcache/main.c **** 	NimMainModule();
  44:Src/nimcache/main.c **** }
  45:Src/nimcache/main.c **** 
  46:Src/nimcache/main.c **** N_CDECL(void, NimMain)(void) {
  93              		.loc 1 46 0
  94              		.cfi_startproc
  95              		@ args = 0, pretend = 0, frame = 8
  96              		@ frame_needed = 0, uses_anonymous_args = 0
  97 0000 00B5     		push	{lr}
  98              	.LCFI3:
  99              		.cfi_def_cfa_offset 4
 100              		.cfi_offset 14, -4
 101 0002 83B0     		sub	sp, sp, #12
 102              	.LCFI4:
 103              		.cfi_def_cfa_offset 16
  47:Src/nimcache/main.c **** 	void (*volatile inner)(void);
  48:Src/nimcache/main.c **** 	PreMain();
 104              		.loc 1 48 0
 105 0004 FFF7FEFF 		bl	PreMain
 106              	.LVL3:
  49:Src/nimcache/main.c **** 	inner = NimMainInner;
 107              		.loc 1 49 0
 108 0008 034B     		ldr	r3, .L6
 109 000a 0193     		str	r3, [sp, #4]
  50:Src/nimcache/main.c **** 	(*inner)();
 110              		.loc 1 50 0
 111 000c 019B     		ldr	r3, [sp, #4]
 112 000e 9847     		blx	r3
 113              	.LVL4:
  51:Src/nimcache/main.c **** }
 114              		.loc 1 51 0
 115 0010 03B0     		add	sp, sp, #12
 116              		@ sp needed
 117 0012 5DF804FB 		ldr	pc, [sp], #4
 118              	.L7:
 119 0016 00BF     		.align	2
 120              	.L6:
 121 0018 00000000 		.word	NimMainInner
 122              		.cfi_endproc
 123              	.LFE128:
 125              		.section	.text.main,"ax",%progbits
 126              		.align	2
ARM GAS  /var/folders/m5/1z2v3_dd2cg5xnclvhns6x640000gn/T//cc2aMuMW.s 			page 4


 127              		.global	main
 128              		.thumb
 129              		.thumb_func
 131              	main:
 132              	.LFB129:
  52:Src/nimcache/main.c **** 
  53:Src/nimcache/main.c **** int main(void) {
 133              		.loc 1 53 0
 134              		.cfi_startproc
 135              		@ args = 0, pretend = 0, frame = 0
 136              		@ frame_needed = 0, uses_anonymous_args = 0
 137 0000 08B5     		push	{r3, lr}
 138              	.LCFI5:
 139              		.cfi_def_cfa_offset 8
 140              		.cfi_offset 3, -8
 141              		.cfi_offset 14, -4
  54:Src/nimcache/main.c **** 	NimMain();
 142              		.loc 1 54 0
 143 0002 FFF7FEFF 		bl	NimMain
 144              	.LVL5:
  55:Src/nimcache/main.c **** 	return 0;
  56:Src/nimcache/main.c **** }
 145              		.loc 1 56 0
 146 0006 0020     		movs	r0, #0
 147 0008 08BD     		pop	{r3, pc}
 148              		.cfi_endproc
 149              	.LFE129:
 151 000a 00BF     		.section	.text.NimMainModule,"ax",%progbits
 152              		.align	2
 153              		.global	NimMainModule
 154              		.thumb
 155              		.thumb_func
 157              	NimMainModule:
 158              	.LFB130:
  57:Src/nimcache/main.c **** 
  58:Src/nimcache/main.c **** NIM_EXTERNC N_NOINLINE(void, NimMainModule)(void) {
 159              		.loc 1 58 0
 160              		.cfi_startproc
 161              		@ Volatile: function does not return.
 162              		@ args = 0, pretend = 0, frame = 0
 163              		@ frame_needed = 0, uses_anonymous_args = 0
 164 0000 08B5     		push	{r3, lr}
 165              	.LCFI6:
 166              		.cfi_def_cfa_offset 8
 167              		.cfi_offset 3, -8
 168              		.cfi_offset 14, -4
  59:Src/nimcache/main.c **** 	main_init();
 169              		.loc 1 59 0
 170 0002 FFF7FEFF 		bl	main_init
 171              	.LVL6:
  60:Src/nimcache/main.c **** 	{
  61:Src/nimcache/main.c **** 		while (1) {
  62:Src/nimcache/main.c **** 			LED1_tick();
  63:Src/nimcache/main.c **** 			HAL_Delay(((NU32) 200));
 172              		.loc 1 63 0
 173 0006 C824     		movs	r4, #200
 174              	.L10:
ARM GAS  /var/folders/m5/1z2v3_dd2cg5xnclvhns6x640000gn/T//cc2aMuMW.s 			page 5


  62:Src/nimcache/main.c **** 			LED1_tick();
 175              		.loc 1 62 0 discriminator 1
 176 0008 FFF7FEFF 		bl	LED1_tick
 177              	.LVL7:
 178              		.loc 1 63 0 discriminator 1
 179 000c 2046     		mov	r0, r4
 180 000e FFF7FEFF 		bl	HAL_Delay
 181              	.LVL8:
 182 0012 F9E7     		b	.L10
 183              		.cfi_endproc
 184              	.LFE130:
 186              		.section	.text.NimMainInner,"ax",%progbits
 187              		.align	2
 188              		.global	NimMainInner
 189              		.thumb
 190              		.thumb_func
 192              	NimMainInner:
 193              	.LFB127:
  42:Src/nimcache/main.c **** N_CDECL(void, NimMainInner)(void) {
 194              		.loc 1 42 0
 195              		.cfi_startproc
 196              		@ Volatile: function does not return.
 197              		@ args = 0, pretend = 0, frame = 0
 198              		@ frame_needed = 0, uses_anonymous_args = 0
 199 0000 08B5     		push	{r3, lr}
 200              	.LCFI7:
 201              		.cfi_def_cfa_offset 8
 202              		.cfi_offset 3, -8
 203              		.cfi_offset 14, -4
  43:Src/nimcache/main.c **** 	NimMainModule();
 204              		.loc 1 43 0
 205 0002 FFF7FEFF 		bl	NimMainModule
 206              	.LVL9:
 207              		.cfi_endproc
 208              	.LFE127:
 210 0006 00BF     		.section	.text.mainDatInit000,"ax",%progbits
 211              		.align	2
 212              		.global	mainDatInit000
 213              		.thumb
 214              		.thumb_func
 216              	mainDatInit000:
 217              	.LFB131:
  64:Src/nimcache/main.c **** 		}
  65:Src/nimcache/main.c **** 	}
  66:Src/nimcache/main.c **** }
  67:Src/nimcache/main.c **** 
  68:Src/nimcache/main.c **** NIM_EXTERNC N_NOINLINE(void, mainDatInit000)(void) {
 218              		.loc 1 68 0
 219              		.cfi_startproc
 220              		@ args = 0, pretend = 0, frame = 0
 221              		@ frame_needed = 0, uses_anonymous_args = 0
 222              		@ link register save eliminated.
 223 0000 7047     		bx	lr
 224              		.cfi_endproc
 225              	.LFE131:
 227              		.comm	gEnv,4,4
 228              		.comm	cmdLine,4,4
ARM GAS  /var/folders/m5/1z2v3_dd2cg5xnclvhns6x640000gn/T//cc2aMuMW.s 			page 6


 229              		.comm	cmdCount,4,4
 230 0002 00BF     		.text
 231              	.Letext0:
 232              		.file 2 "Src/nimcache/nimbase.h"
 233              		.file 3 "/Users/tattaka/gcc-arm-none-eabi-4_8-2013q4/arm-none-eabi/include/stdint.h"
 234              		.file 4 "Drivers/CMSIS/Include/core_cm4.h"
 235              		.file 5 "Drivers/STM32F4xx_HAL_Driver/Inc/stm32f4xx_hal.h"
ARM GAS  /var/folders/m5/1z2v3_dd2cg5xnclvhns6x640000gn/T//cc2aMuMW.s 			page 7

