ARM GAS  /var/folders/m5/1z2v3_dd2cg5xnclvhns6x640000gn/T//ccYNSpsl.s 			page 1


   1              		.syntax unified
   2              		.cpu cortex-m4
   3              		.eabi_attribute 27, 3
   4              		.eabi_attribute 28, 1
   5              		.fpu fpv4-sp-d16
   6              		.eabi_attribute 20, 1
   7              		.eabi_attribute 21, 1
   8              		.eabi_attribute 23, 3
   9              		.eabi_attribute 24, 1
  10              		.eabi_attribute 25, 1
  11              		.eabi_attribute 26, 1
  12              		.eabi_attribute 30, 1
  13              		.eabi_attribute 34, 1
  14              		.eabi_attribute 18, 4
  15              		.thumb
  16              		.file	"main_.c"
  17              		.text
  18              	.Ltext0:
  19              		.cfi_sections	.debug_frame
  20              		.section	.text.MX_GPIO_Init,"ax",%progbits
  21              		.align	2
  22              		.thumb
  23              		.thumb_func
  25              	MX_GPIO_Init:
  26              	.LFB126:
  27              		.file 1 "Src/main_.c"
   1:Src/main_.c   **** /**
   2:Src/main_.c   ****   ******************************************************************************
   3:Src/main_.c   ****   * File Name          : main.c
   4:Src/main_.c   ****   * Description        : Main program body
   5:Src/main_.c   ****   ******************************************************************************
   6:Src/main_.c   ****   ** This notice applies to any and all portions of this file
   7:Src/main_.c   ****   * that are not between comment pairs USER CODE BEGIN and
   8:Src/main_.c   ****   * USER CODE END. Other portions of this file, whether
   9:Src/main_.c   ****   * inserted by the user or by software development tools
  10:Src/main_.c   ****   * are owned by their respective copyright owners.
  11:Src/main_.c   ****   *
  12:Src/main_.c   ****   * COPYRIGHT(c) 2017 STMicroelectronics
  13:Src/main_.c   ****   *
  14:Src/main_.c   ****   * Redistribution and use in source and binary forms, with or without modification,
  15:Src/main_.c   ****   * are permitted provided that the following conditions are met:
  16:Src/main_.c   ****   *   1. Redistributions of source code must retain the above copyright notice,
  17:Src/main_.c   ****   *      this list of conditions and the following disclaimer.
  18:Src/main_.c   ****   *   2. Redistributions in binary form must reproduce the above copyright notice,
  19:Src/main_.c   ****   *      this list of conditions and the following disclaimer in the documentation
  20:Src/main_.c   ****   *      and/or other materials provided with the distribution.
  21:Src/main_.c   ****   *   3. Neither the name of STMicroelectronics nor the names of its contributors
  22:Src/main_.c   ****   *      may be used to endorse or promote products derived from this software
  23:Src/main_.c   ****   *      without specific prior written permission.
  24:Src/main_.c   ****   *
  25:Src/main_.c   ****   * THIS SOFTWARE IS PROVIDED BY THE COPYRIGHT HOLDERS AND CONTRIBUTORS "AS IS"
  26:Src/main_.c   ****   * AND ANY EXPRESS OR IMPLIED WARRANTIES, INCLUDING, BUT NOT LIMITED TO, THE
  27:Src/main_.c   ****   * IMPLIED WARRANTIES OF MERCHANTABILITY AND FITNESS FOR A PARTICULAR PURPOSE ARE
  28:Src/main_.c   ****   * DISCLAIMED. IN NO EVENT SHALL THE COPYRIGHT HOLDER OR CONTRIBUTORS BE LIABLE
  29:Src/main_.c   ****   * FOR ANY DIRECT, INDIRECT, INCIDENTAL, SPECIAL, EXEMPLARY, OR CONSEQUENTIAL
  30:Src/main_.c   ****   * DAMAGES (INCLUDING, BUT NOT LIMITED TO, PROCUREMENT OF SUBSTITUTE GOODS OR
  31:Src/main_.c   ****   * SERVICES; LOSS OF USE, DATA, OR PROFITS; OR BUSINESS INTERRUPTION) HOWEVER
ARM GAS  /var/folders/m5/1z2v3_dd2cg5xnclvhns6x640000gn/T//ccYNSpsl.s 			page 2


  32:Src/main_.c   ****   * CAUSED AND ON ANY THEORY OF LIABILITY, WHETHER IN CONTRACT, STRICT LIABILITY,
  33:Src/main_.c   ****   * OR TORT (INCLUDING NEGLIGENCE OR OTHERWISE) ARISING IN ANY WAY OUT OF THE USE
  34:Src/main_.c   ****   * OF THIS SOFTWARE, EVEN IF ADVISED OF THE POSSIBILITY OF SUCH DAMAGE.
  35:Src/main_.c   ****   *
  36:Src/main_.c   ****   ******************************************************************************
  37:Src/main_.c   ****   */
  38:Src/main_.c   **** /* Includes ------------------------------------------------------------------*/
  39:Src/main_.c   **** #include "main.h"
  40:Src/main_.c   **** #include "stm32f4xx_hal.h"
  41:Src/main_.c   **** 
  42:Src/main_.c   **** /* USER CODE BEGIN Includes */
  43:Src/main_.c   **** 
  44:Src/main_.c   **** /* USER CODE END Includes */
  45:Src/main_.c   **** 
  46:Src/main_.c   **** /* Private variables ---------------------------------------------------------*/
  47:Src/main_.c   **** 
  48:Src/main_.c   **** /* USER CODE BEGIN PV */
  49:Src/main_.c   **** /* Private variables ---------------------------------------------------------*/
  50:Src/main_.c   **** 
  51:Src/main_.c   **** /* USER CODE END PV */
  52:Src/main_.c   **** 
  53:Src/main_.c   **** /* Private function prototypes -----------------------------------------------*/
  54:Src/main_.c   **** void SystemClock_Config(void);
  55:Src/main_.c   **** static void MX_GPIO_Init(void);
  56:Src/main_.c   **** /* USER CODE BEGIN PFP */
  57:Src/main_.c   **** /* Private function prototypes -----------------------------------------------*/
  58:Src/main_.c   **** 
  59:Src/main_.c   **** /* USER CODE END PFP */
  60:Src/main_.c   **** 
  61:Src/main_.c   **** /* USER CODE BEGIN 0 */
  62:Src/main_.c   **** void main_init(void){
  63:Src/main_.c   ****   HAL_Init();
  64:Src/main_.c   ****   SystemClock_Config();
  65:Src/main_.c   ****   MX_GPIO_Init();
  66:Src/main_.c   **** }
  67:Src/main_.c   **** void LED1_tick(void){
  68:Src/main_.c   ****    HAL_GPIO_TogglePin(GPIOA, GPIO_PIN_5);
  69:Src/main_.c   **** }
  70:Src/main_.c   **** /* USER CODE END 0 */
  71:Src/main_.c   **** 
  72:Src/main_.c   **** /** System Clock Configuration
  73:Src/main_.c   **** */
  74:Src/main_.c   **** void SystemClock_Config(void)
  75:Src/main_.c   **** {
  76:Src/main_.c   **** 
  77:Src/main_.c   ****   RCC_OscInitTypeDef RCC_OscInitStruct;
  78:Src/main_.c   ****   RCC_ClkInitTypeDef RCC_ClkInitStruct;
  79:Src/main_.c   **** 
  80:Src/main_.c   ****     /**Configure the main internal regulator output voltage
  81:Src/main_.c   ****     */
  82:Src/main_.c   ****   __HAL_RCC_PWR_CLK_ENABLE();
  83:Src/main_.c   **** 
  84:Src/main_.c   ****   __HAL_PWR_VOLTAGESCALING_CONFIG(PWR_REGULATOR_VOLTAGE_SCALE2);
  85:Src/main_.c   **** 
  86:Src/main_.c   ****     /**Initializes the CPU, AHB and APB busses clocks
  87:Src/main_.c   ****     */
  88:Src/main_.c   ****   RCC_OscInitStruct.OscillatorType = RCC_OSCILLATORTYPE_HSI;
ARM GAS  /var/folders/m5/1z2v3_dd2cg5xnclvhns6x640000gn/T//ccYNSpsl.s 			page 3


  89:Src/main_.c   ****   RCC_OscInitStruct.HSIState = RCC_HSI_ON;
  90:Src/main_.c   ****   RCC_OscInitStruct.HSICalibrationValue = 16;
  91:Src/main_.c   ****   RCC_OscInitStruct.PLL.PLLState = RCC_PLL_ON;
  92:Src/main_.c   ****   RCC_OscInitStruct.PLL.PLLSource = RCC_PLLSOURCE_HSI;
  93:Src/main_.c   ****   RCC_OscInitStruct.PLL.PLLM = 16;
  94:Src/main_.c   ****   RCC_OscInitStruct.PLL.PLLN = 336;
  95:Src/main_.c   ****   RCC_OscInitStruct.PLL.PLLP = RCC_PLLP_DIV4;
  96:Src/main_.c   ****   RCC_OscInitStruct.PLL.PLLQ = 7;
  97:Src/main_.c   ****   if (HAL_RCC_OscConfig(&RCC_OscInitStruct) != HAL_OK)
  98:Src/main_.c   ****   {
  99:Src/main_.c   ****     _Error_Handler(__FILE__, __LINE__);
 100:Src/main_.c   ****   }
 101:Src/main_.c   **** 
 102:Src/main_.c   ****     /**Initializes the CPU, AHB and APB busses clocks
 103:Src/main_.c   ****     */
 104:Src/main_.c   ****   RCC_ClkInitStruct.ClockType = RCC_CLOCKTYPE_HCLK|RCC_CLOCKTYPE_SYSCLK
 105:Src/main_.c   ****                               |RCC_CLOCKTYPE_PCLK1|RCC_CLOCKTYPE_PCLK2;
 106:Src/main_.c   ****   RCC_ClkInitStruct.SYSCLKSource = RCC_SYSCLKSOURCE_PLLCLK;
 107:Src/main_.c   ****   RCC_ClkInitStruct.AHBCLKDivider = RCC_SYSCLK_DIV1;
 108:Src/main_.c   ****   RCC_ClkInitStruct.APB1CLKDivider = RCC_HCLK_DIV2;
 109:Src/main_.c   ****   RCC_ClkInitStruct.APB2CLKDivider = RCC_HCLK_DIV1;
 110:Src/main_.c   **** 
 111:Src/main_.c   ****   if (HAL_RCC_ClockConfig(&RCC_ClkInitStruct, FLASH_LATENCY_2) != HAL_OK)
 112:Src/main_.c   ****   {
 113:Src/main_.c   ****     _Error_Handler(__FILE__, __LINE__);
 114:Src/main_.c   ****   }
 115:Src/main_.c   **** 
 116:Src/main_.c   ****     /**Configure the Systick interrupt time
 117:Src/main_.c   ****     */
 118:Src/main_.c   ****   HAL_SYSTICK_Config(HAL_RCC_GetHCLKFreq()/1000);
 119:Src/main_.c   **** 
 120:Src/main_.c   ****     /**Configure the Systick
 121:Src/main_.c   ****     */
 122:Src/main_.c   ****   HAL_SYSTICK_CLKSourceConfig(SYSTICK_CLKSOURCE_HCLK);
 123:Src/main_.c   **** 
 124:Src/main_.c   ****   /* SysTick_IRQn interrupt configuration */
 125:Src/main_.c   ****   HAL_NVIC_SetPriority(SysTick_IRQn, 0, 0);
 126:Src/main_.c   **** }
 127:Src/main_.c   **** 
 128:Src/main_.c   **** /** Configure pins as
 129:Src/main_.c   ****         * Analog
 130:Src/main_.c   ****         * Input
 131:Src/main_.c   ****         * Output
 132:Src/main_.c   ****         * EVENT_OUT
 133:Src/main_.c   ****         * EXTI
 134:Src/main_.c   ****      PA2   ------> USART2_TX
 135:Src/main_.c   ****      PA3   ------> USART2_RX
 136:Src/main_.c   **** */
 137:Src/main_.c   **** static void MX_GPIO_Init(void)
 138:Src/main_.c   **** {
  28              		.loc 1 138 0
  29              		.cfi_startproc
  30              		@ args = 0, pretend = 0, frame = 40
  31              		@ frame_needed = 0, uses_anonymous_args = 0
  32 0000 30B5     		push	{r4, r5, lr}
  33              	.LCFI0:
  34              		.cfi_def_cfa_offset 12
ARM GAS  /var/folders/m5/1z2v3_dd2cg5xnclvhns6x640000gn/T//ccYNSpsl.s 			page 4


  35              		.cfi_offset 4, -12
  36              		.cfi_offset 5, -8
  37              		.cfi_offset 14, -4
  38 0002 8BB0     		sub	sp, sp, #44
  39              	.LCFI1:
  40              		.cfi_def_cfa_offset 56
  41              	.LBB2:
 139:Src/main_.c   **** 
 140:Src/main_.c   ****   GPIO_InitTypeDef GPIO_InitStruct;
 141:Src/main_.c   **** 
 142:Src/main_.c   ****   /* GPIO Ports Clock Enable */
 143:Src/main_.c   ****   __HAL_RCC_GPIOC_CLK_ENABLE();
  42              		.loc 1 143 0
  43 0004 0024     		movs	r4, #0
  44 0006 0194     		str	r4, [sp, #4]
  45 0008 274B     		ldr	r3, .L2
  46 000a 1A6B     		ldr	r2, [r3, #48]
  47 000c 42F00402 		orr	r2, r2, #4
  48 0010 1A63     		str	r2, [r3, #48]
  49 0012 1A6B     		ldr	r2, [r3, #48]
  50 0014 02F00402 		and	r2, r2, #4
  51 0018 0192     		str	r2, [sp, #4]
  52 001a 019A     		ldr	r2, [sp, #4]
  53              	.LBE2:
  54              	.LBB3:
 144:Src/main_.c   ****   __HAL_RCC_GPIOH_CLK_ENABLE();
  55              		.loc 1 144 0
  56 001c 0294     		str	r4, [sp, #8]
  57 001e 1A6B     		ldr	r2, [r3, #48]
  58 0020 42F08002 		orr	r2, r2, #128
  59 0024 1A63     		str	r2, [r3, #48]
  60 0026 1A6B     		ldr	r2, [r3, #48]
  61 0028 02F08002 		and	r2, r2, #128
  62 002c 0292     		str	r2, [sp, #8]
  63 002e 029A     		ldr	r2, [sp, #8]
  64              	.LBE3:
  65              	.LBB4:
 145:Src/main_.c   ****   __HAL_RCC_GPIOA_CLK_ENABLE();
  66              		.loc 1 145 0
  67 0030 0394     		str	r4, [sp, #12]
  68 0032 1A6B     		ldr	r2, [r3, #48]
  69 0034 42F00102 		orr	r2, r2, #1
  70 0038 1A63     		str	r2, [r3, #48]
  71 003a 1A6B     		ldr	r2, [r3, #48]
  72 003c 02F00102 		and	r2, r2, #1
  73 0040 0392     		str	r2, [sp, #12]
  74 0042 039A     		ldr	r2, [sp, #12]
  75              	.LBE4:
  76              	.LBB5:
 146:Src/main_.c   ****   __HAL_RCC_GPIOB_CLK_ENABLE();
  77              		.loc 1 146 0
  78 0044 0494     		str	r4, [sp, #16]
  79 0046 1A6B     		ldr	r2, [r3, #48]
  80 0048 42F00202 		orr	r2, r2, #2
  81 004c 1A63     		str	r2, [r3, #48]
  82 004e 1B6B     		ldr	r3, [r3, #48]
  83 0050 03F00203 		and	r3, r3, #2
ARM GAS  /var/folders/m5/1z2v3_dd2cg5xnclvhns6x640000gn/T//ccYNSpsl.s 			page 5


  84 0054 0493     		str	r3, [sp, #16]
  85 0056 049B     		ldr	r3, [sp, #16]
  86              	.LBE5:
 147:Src/main_.c   **** 
 148:Src/main_.c   ****   /*Configure GPIO pin Output Level */
 149:Src/main_.c   ****   HAL_GPIO_WritePin(LD2_GPIO_Port, LD2_Pin, GPIO_PIN_RESET);
  87              		.loc 1 149 0
  88 0058 144D     		ldr	r5, .L2+4
  89 005a 2846     		mov	r0, r5
  90 005c 2021     		movs	r1, #32
  91 005e 2246     		mov	r2, r4
  92 0060 FFF7FEFF 		bl	HAL_GPIO_WritePin
  93              	.LVL0:
 150:Src/main_.c   **** 
 151:Src/main_.c   ****   /*Configure GPIO pin : B1_Pin */
 152:Src/main_.c   ****   GPIO_InitStruct.Pin = B1_Pin;
  94              		.loc 1 152 0
  95 0064 4FF40053 		mov	r3, #8192
  96 0068 0593     		str	r3, [sp, #20]
 153:Src/main_.c   ****   GPIO_InitStruct.Mode = GPIO_MODE_IT_FALLING;
  97              		.loc 1 153 0
  98 006a 114B     		ldr	r3, .L2+8
  99 006c 0693     		str	r3, [sp, #24]
 154:Src/main_.c   ****   GPIO_InitStruct.Pull = GPIO_NOPULL;
 100              		.loc 1 154 0
 101 006e 0794     		str	r4, [sp, #28]
 155:Src/main_.c   ****   HAL_GPIO_Init(B1_GPIO_Port, &GPIO_InitStruct);
 102              		.loc 1 155 0
 103 0070 1048     		ldr	r0, .L2+12
 104 0072 05A9     		add	r1, sp, #20
 105 0074 FFF7FEFF 		bl	HAL_GPIO_Init
 106              	.LVL1:
 156:Src/main_.c   **** 
 157:Src/main_.c   ****   /*Configure GPIO pins : USART_TX_Pin USART_RX_Pin */
 158:Src/main_.c   ****   GPIO_InitStruct.Pin = USART_TX_Pin|USART_RX_Pin;
 107              		.loc 1 158 0
 108 0078 0C23     		movs	r3, #12
 109 007a 0593     		str	r3, [sp, #20]
 159:Src/main_.c   ****   GPIO_InitStruct.Mode = GPIO_MODE_AF_PP;
 110              		.loc 1 159 0
 111 007c 0223     		movs	r3, #2
 112 007e 0693     		str	r3, [sp, #24]
 160:Src/main_.c   ****   GPIO_InitStruct.Pull = GPIO_NOPULL;
 113              		.loc 1 160 0
 114 0080 0794     		str	r4, [sp, #28]
 161:Src/main_.c   ****   GPIO_InitStruct.Speed = GPIO_SPEED_FREQ_LOW;
 115              		.loc 1 161 0
 116 0082 0894     		str	r4, [sp, #32]
 162:Src/main_.c   ****   GPIO_InitStruct.Alternate = GPIO_AF7_USART2;
 117              		.loc 1 162 0
 118 0084 0723     		movs	r3, #7
 119 0086 0993     		str	r3, [sp, #36]
 163:Src/main_.c   ****   HAL_GPIO_Init(GPIOA, &GPIO_InitStruct);
 120              		.loc 1 163 0
 121 0088 2846     		mov	r0, r5
 122 008a 05A9     		add	r1, sp, #20
 123 008c FFF7FEFF 		bl	HAL_GPIO_Init
ARM GAS  /var/folders/m5/1z2v3_dd2cg5xnclvhns6x640000gn/T//ccYNSpsl.s 			page 6


 124              	.LVL2:
 164:Src/main_.c   **** 
 165:Src/main_.c   ****   /*Configure GPIO pin : LD2_Pin */
 166:Src/main_.c   ****   GPIO_InitStruct.Pin = LD2_Pin;
 125              		.loc 1 166 0
 126 0090 2023     		movs	r3, #32
 127 0092 0593     		str	r3, [sp, #20]
 167:Src/main_.c   ****   GPIO_InitStruct.Mode = GPIO_MODE_OUTPUT_PP;
 128              		.loc 1 167 0
 129 0094 0123     		movs	r3, #1
 130 0096 0693     		str	r3, [sp, #24]
 168:Src/main_.c   ****   GPIO_InitStruct.Pull = GPIO_NOPULL;
 131              		.loc 1 168 0
 132 0098 0794     		str	r4, [sp, #28]
 169:Src/main_.c   ****   GPIO_InitStruct.Speed = GPIO_SPEED_FREQ_LOW;
 133              		.loc 1 169 0
 134 009a 0894     		str	r4, [sp, #32]
 170:Src/main_.c   ****   HAL_GPIO_Init(LD2_GPIO_Port, &GPIO_InitStruct);
 135              		.loc 1 170 0
 136 009c 2846     		mov	r0, r5
 137 009e 05A9     		add	r1, sp, #20
 138 00a0 FFF7FEFF 		bl	HAL_GPIO_Init
 139              	.LVL3:
 171:Src/main_.c   **** 
 172:Src/main_.c   **** }
 140              		.loc 1 172 0
 141 00a4 0BB0     		add	sp, sp, #44
 142              		@ sp needed
 143 00a6 30BD     		pop	{r4, r5, pc}
 144              	.L3:
 145              		.align	2
 146              	.L2:
 147 00a8 00380240 		.word	1073887232
 148 00ac 00000240 		.word	1073872896
 149 00b0 00002110 		.word	270598144
 150 00b4 00080240 		.word	1073874944
 151              		.cfi_endproc
 152              	.LFE126:
 154              		.section	.text.LED1_tick,"ax",%progbits
 155              		.align	2
 156              		.global	LED1_tick
 157              		.thumb
 158              		.thumb_func
 160              	LED1_tick:
 161              	.LFB124:
  67:Src/main_.c   **** void LED1_tick(void){
 162              		.loc 1 67 0
 163              		.cfi_startproc
 164              		@ args = 0, pretend = 0, frame = 0
 165              		@ frame_needed = 0, uses_anonymous_args = 0
 166 0000 08B5     		push	{r3, lr}
 167              	.LCFI2:
 168              		.cfi_def_cfa_offset 8
 169              		.cfi_offset 3, -8
 170              		.cfi_offset 14, -4
  68:Src/main_.c   ****    HAL_GPIO_TogglePin(GPIOA, GPIO_PIN_5);
 171              		.loc 1 68 0
ARM GAS  /var/folders/m5/1z2v3_dd2cg5xnclvhns6x640000gn/T//ccYNSpsl.s 			page 7


 172 0002 0248     		ldr	r0, .L5
 173 0004 2021     		movs	r1, #32
 174 0006 FFF7FEFF 		bl	HAL_GPIO_TogglePin
 175              	.LVL4:
 176 000a 08BD     		pop	{r3, pc}
 177              	.L6:
 178              		.align	2
 179              	.L5:
 180 000c 00000240 		.word	1073872896
 181              		.cfi_endproc
 182              	.LFE124:
 184              		.section	.text._Error_Handler,"ax",%progbits
 185              		.align	2
 186              		.global	_Error_Handler
 187              		.thumb
 188              		.thumb_func
 190              	_Error_Handler:
 191              	.LFB127:
 173:Src/main_.c   **** 
 174:Src/main_.c   **** /* USER CODE BEGIN 4 */
 175:Src/main_.c   **** 
 176:Src/main_.c   **** /* USER CODE END 4 */
 177:Src/main_.c   **** 
 178:Src/main_.c   **** /**
 179:Src/main_.c   ****   * @brief  This function is executed in case of error occurrence.
 180:Src/main_.c   ****   * @param  None
 181:Src/main_.c   ****   * @retval None
 182:Src/main_.c   ****   */
 183:Src/main_.c   **** void _Error_Handler(char * file, int line)
 184:Src/main_.c   **** {
 192              		.loc 1 184 0
 193              		.cfi_startproc
 194              		@ Volatile: function does not return.
 195              		@ args = 0, pretend = 0, frame = 0
 196              		@ frame_needed = 0, uses_anonymous_args = 0
 197              		@ link register save eliminated.
 198              	.LVL5:
 199              	.L8:
 200 0000 FEE7     		b	.L8
 201              		.cfi_endproc
 202              	.LFE127:
 204 0002 00BF     		.section	.text.SystemClock_Config,"ax",%progbits
 205              		.align	2
 206              		.global	SystemClock_Config
 207              		.thumb
 208              		.thumb_func
 210              	SystemClock_Config:
 211              	.LFB125:
  75:Src/main_.c   **** {
 212              		.loc 1 75 0
 213              		.cfi_startproc
 214              		@ args = 0, pretend = 0, frame = 80
 215              		@ frame_needed = 0, uses_anonymous_args = 0
  75:Src/main_.c   **** {
 216              		.loc 1 75 0
 217 0000 00B5     		push	{lr}
 218              	.LCFI3:
ARM GAS  /var/folders/m5/1z2v3_dd2cg5xnclvhns6x640000gn/T//ccYNSpsl.s 			page 8


 219              		.cfi_def_cfa_offset 4
 220              		.cfi_offset 14, -4
 221 0002 95B0     		sub	sp, sp, #84
 222              	.LCFI4:
 223              		.cfi_def_cfa_offset 88
 224              	.LBB6:
  82:Src/main_.c   ****   __HAL_RCC_PWR_CLK_ENABLE();
 225              		.loc 1 82 0
 226 0004 0023     		movs	r3, #0
 227 0006 0193     		str	r3, [sp, #4]
 228 0008 2A4A     		ldr	r2, .L12
 229 000a 116C     		ldr	r1, [r2, #64]
 230 000c 41F08051 		orr	r1, r1, #268435456
 231 0010 1164     		str	r1, [r2, #64]
 232 0012 126C     		ldr	r2, [r2, #64]
 233 0014 02F08052 		and	r2, r2, #268435456
 234 0018 0192     		str	r2, [sp, #4]
 235 001a 019A     		ldr	r2, [sp, #4]
 236              	.LBE6:
 237              	.LBB7:
  84:Src/main_.c   ****   __HAL_PWR_VOLTAGESCALING_CONFIG(PWR_REGULATOR_VOLTAGE_SCALE2);
 238              		.loc 1 84 0
 239 001c 0293     		str	r3, [sp, #8]
 240 001e 264A     		ldr	r2, .L12+4
 241 0020 1168     		ldr	r1, [r2]
 242 0022 21F44041 		bic	r1, r1, #49152
 243 0026 41F40041 		orr	r1, r1, #32768
 244 002a 1160     		str	r1, [r2]
 245 002c 1268     		ldr	r2, [r2]
 246 002e 02F44042 		and	r2, r2, #49152
 247 0032 0292     		str	r2, [sp, #8]
 248 0034 029A     		ldr	r2, [sp, #8]
 249              	.LBE7:
  88:Src/main_.c   ****   RCC_OscInitStruct.OscillatorType = RCC_OSCILLATORTYPE_HSI;
 250              		.loc 1 88 0
 251 0036 0221     		movs	r1, #2
 252 0038 0891     		str	r1, [sp, #32]
  89:Src/main_.c   ****   RCC_OscInitStruct.HSIState = RCC_HSI_ON;
 253              		.loc 1 89 0
 254 003a 0122     		movs	r2, #1
 255 003c 0B92     		str	r2, [sp, #44]
  90:Src/main_.c   ****   RCC_OscInitStruct.HSICalibrationValue = 16;
 256              		.loc 1 90 0
 257 003e 1022     		movs	r2, #16
 258 0040 0C92     		str	r2, [sp, #48]
  91:Src/main_.c   ****   RCC_OscInitStruct.PLL.PLLState = RCC_PLL_ON;
 259              		.loc 1 91 0
 260 0042 0E91     		str	r1, [sp, #56]
  92:Src/main_.c   ****   RCC_OscInitStruct.PLL.PLLSource = RCC_PLLSOURCE_HSI;
 261              		.loc 1 92 0
 262 0044 0F93     		str	r3, [sp, #60]
  93:Src/main_.c   ****   RCC_OscInitStruct.PLL.PLLM = 16;
 263              		.loc 1 93 0
 264 0046 1092     		str	r2, [sp, #64]
  94:Src/main_.c   ****   RCC_OscInitStruct.PLL.PLLN = 336;
 265              		.loc 1 94 0
 266 0048 4FF4A873 		mov	r3, #336
ARM GAS  /var/folders/m5/1z2v3_dd2cg5xnclvhns6x640000gn/T//ccYNSpsl.s 			page 9


 267 004c 1193     		str	r3, [sp, #68]
  95:Src/main_.c   ****   RCC_OscInitStruct.PLL.PLLP = RCC_PLLP_DIV4;
 268              		.loc 1 95 0
 269 004e 0423     		movs	r3, #4
 270 0050 1293     		str	r3, [sp, #72]
  96:Src/main_.c   ****   RCC_OscInitStruct.PLL.PLLQ = 7;
 271              		.loc 1 96 0
 272 0052 0723     		movs	r3, #7
 273 0054 1393     		str	r3, [sp, #76]
  97:Src/main_.c   ****   if (HAL_RCC_OscConfig(&RCC_OscInitStruct) != HAL_OK)
 274              		.loc 1 97 0
 275 0056 08A8     		add	r0, sp, #32
 276 0058 FFF7FEFF 		bl	HAL_RCC_OscConfig
 277              	.LVL6:
 278 005c 18B1     		cbz	r0, .L10
  99:Src/main_.c   ****     _Error_Handler(__FILE__, __LINE__);
 279              		.loc 1 99 0
 280 005e 1748     		ldr	r0, .L12+8
 281 0060 6321     		movs	r1, #99
 282 0062 FFF7FEFF 		bl	_Error_Handler
 283              	.LVL7:
 284              	.L10:
 104:Src/main_.c   ****   RCC_ClkInitStruct.ClockType = RCC_CLOCKTYPE_HCLK|RCC_CLOCKTYPE_SYSCLK
 285              		.loc 1 104 0
 286 0066 0F23     		movs	r3, #15
 287 0068 0393     		str	r3, [sp, #12]
 106:Src/main_.c   ****   RCC_ClkInitStruct.SYSCLKSource = RCC_SYSCLKSOURCE_PLLCLK;
 288              		.loc 1 106 0
 289 006a 0221     		movs	r1, #2
 290 006c 0491     		str	r1, [sp, #16]
 107:Src/main_.c   ****   RCC_ClkInitStruct.AHBCLKDivider = RCC_SYSCLK_DIV1;
 291              		.loc 1 107 0
 292 006e 0023     		movs	r3, #0
 293 0070 0593     		str	r3, [sp, #20]
 108:Src/main_.c   ****   RCC_ClkInitStruct.APB1CLKDivider = RCC_HCLK_DIV2;
 294              		.loc 1 108 0
 295 0072 4FF48052 		mov	r2, #4096
 296 0076 0692     		str	r2, [sp, #24]
 109:Src/main_.c   ****   RCC_ClkInitStruct.APB2CLKDivider = RCC_HCLK_DIV1;
 297              		.loc 1 109 0
 298 0078 0793     		str	r3, [sp, #28]
 111:Src/main_.c   ****   if (HAL_RCC_ClockConfig(&RCC_ClkInitStruct, FLASH_LATENCY_2) != HAL_OK)
 299              		.loc 1 111 0
 300 007a 03A8     		add	r0, sp, #12
 301 007c FFF7FEFF 		bl	HAL_RCC_ClockConfig
 302              	.LVL8:
 303 0080 18B1     		cbz	r0, .L11
 113:Src/main_.c   ****     _Error_Handler(__FILE__, __LINE__);
 304              		.loc 1 113 0
 305 0082 0E48     		ldr	r0, .L12+8
 306 0084 7121     		movs	r1, #113
 307 0086 FFF7FEFF 		bl	_Error_Handler
 308              	.LVL9:
 309              	.L11:
 118:Src/main_.c   ****   HAL_SYSTICK_Config(HAL_RCC_GetHCLKFreq()/1000);
 310              		.loc 1 118 0
 311 008a FFF7FEFF 		bl	HAL_RCC_GetHCLKFreq
ARM GAS  /var/folders/m5/1z2v3_dd2cg5xnclvhns6x640000gn/T//ccYNSpsl.s 			page 10


 312              	.LVL10:
 313 008e 0C4B     		ldr	r3, .L12+12
 314 0090 A3FB0020 		umull	r2, r0, r3, r0
 315 0094 8009     		lsrs	r0, r0, #6
 316 0096 FFF7FEFF 		bl	HAL_SYSTICK_Config
 317              	.LVL11:
 122:Src/main_.c   ****   HAL_SYSTICK_CLKSourceConfig(SYSTICK_CLKSOURCE_HCLK);
 318              		.loc 1 122 0
 319 009a 0420     		movs	r0, #4
 320 009c FFF7FEFF 		bl	HAL_SYSTICK_CLKSourceConfig
 321              	.LVL12:
 125:Src/main_.c   ****   HAL_NVIC_SetPriority(SysTick_IRQn, 0, 0);
 322              		.loc 1 125 0
 323 00a0 4FF0FF30 		mov	r0, #-1
 324 00a4 0021     		movs	r1, #0
 325 00a6 0A46     		mov	r2, r1
 326 00a8 FFF7FEFF 		bl	HAL_NVIC_SetPriority
 327              	.LVL13:
 126:Src/main_.c   **** }
 328              		.loc 1 126 0
 329 00ac 15B0     		add	sp, sp, #84
 330              		@ sp needed
 331 00ae 5DF804FB 		ldr	pc, [sp], #4
 332              	.L13:
 333 00b2 00BF     		.align	2
 334              	.L12:
 335 00b4 00380240 		.word	1073887232
 336 00b8 00700040 		.word	1073770496
 337 00bc 00000000 		.word	.LC0
 338 00c0 D34D6210 		.word	274877907
 339              		.cfi_endproc
 340              	.LFE125:
 342              		.section	.text.main_init,"ax",%progbits
 343              		.align	2
 344              		.global	main_init
 345              		.thumb
 346              		.thumb_func
 348              	main_init:
 349              	.LFB123:
  62:Src/main_.c   **** void main_init(void){
 350              		.loc 1 62 0
 351              		.cfi_startproc
 352              		@ args = 0, pretend = 0, frame = 0
 353              		@ frame_needed = 0, uses_anonymous_args = 0
 354 0000 08B5     		push	{r3, lr}
 355              	.LCFI5:
 356              		.cfi_def_cfa_offset 8
 357              		.cfi_offset 3, -8
 358              		.cfi_offset 14, -4
  63:Src/main_.c   ****   HAL_Init();
 359              		.loc 1 63 0
 360 0002 FFF7FEFF 		bl	HAL_Init
 361              	.LVL14:
  64:Src/main_.c   ****   SystemClock_Config();
 362              		.loc 1 64 0
 363 0006 FFF7FEFF 		bl	SystemClock_Config
 364              	.LVL15:
ARM GAS  /var/folders/m5/1z2v3_dd2cg5xnclvhns6x640000gn/T//ccYNSpsl.s 			page 11


  65:Src/main_.c   ****   MX_GPIO_Init();
 365              		.loc 1 65 0
 366 000a FFF7FEFF 		bl	MX_GPIO_Init
 367              	.LVL16:
 368 000e 08BD     		pop	{r3, pc}
 369              		.cfi_endproc
 370              	.LFE123:
 372              		.section	.rodata.str1.4,"aMS",%progbits,1
 373              		.align	2
 374              	.LC0:
 375 0000 5372632F 		.ascii	"Src/main_.c\000"
 375      6D61696E 
 375      5F2E6300 
 376              		.text
 377              	.Letext0:
 378              		.file 2 "Drivers/CMSIS/Device/ST/STM32F4xx/Include/stm32f401xe.h"
 379              		.file 3 "/Users/tattaka/gcc-arm-none-eabi-4_8-2013q4/arm-none-eabi/include/stdint.h"
 380              		.file 4 "Drivers/STM32F4xx_HAL_Driver/Inc/stm32f4xx_hal_def.h"
 381              		.file 5 "Drivers/STM32F4xx_HAL_Driver/Inc/stm32f4xx_hal_rcc_ex.h"
 382              		.file 6 "Drivers/STM32F4xx_HAL_Driver/Inc/stm32f4xx_hal_rcc.h"
 383              		.file 7 "Drivers/STM32F4xx_HAL_Driver/Inc/stm32f4xx_hal_gpio.h"
 384              		.file 8 "Drivers/STM32F4xx_HAL_Driver/Inc/stm32f4xx_hal_cortex.h"
 385              		.file 9 "Drivers/STM32F4xx_HAL_Driver/Inc/stm32f4xx_hal.h"
 386              		.file 10 "Drivers/CMSIS/Include/core_cm4.h"
ARM GAS  /var/folders/m5/1z2v3_dd2cg5xnclvhns6x640000gn/T//ccYNSpsl.s 			page 12


DEFINED SYMBOLS
                            *ABS*:0000000000000000 main_.c
/var/folders/m5/1z2v3_dd2cg5xnclvhns6x640000gn/T//ccYNSpsl.s:21     .text.MX_GPIO_Init:0000000000000000 $t
/var/folders/m5/1z2v3_dd2cg5xnclvhns6x640000gn/T//ccYNSpsl.s:25     .text.MX_GPIO_Init:0000000000000000 MX_GPIO_Init
/var/folders/m5/1z2v3_dd2cg5xnclvhns6x640000gn/T//ccYNSpsl.s:147    .text.MX_GPIO_Init:00000000000000a8 $d
/var/folders/m5/1z2v3_dd2cg5xnclvhns6x640000gn/T//ccYNSpsl.s:155    .text.LED1_tick:0000000000000000 $t
/var/folders/m5/1z2v3_dd2cg5xnclvhns6x640000gn/T//ccYNSpsl.s:160    .text.LED1_tick:0000000000000000 LED1_tick
/var/folders/m5/1z2v3_dd2cg5xnclvhns6x640000gn/T//ccYNSpsl.s:180    .text.LED1_tick:000000000000000c $d
/var/folders/m5/1z2v3_dd2cg5xnclvhns6x640000gn/T//ccYNSpsl.s:185    .text._Error_Handler:0000000000000000 $t
/var/folders/m5/1z2v3_dd2cg5xnclvhns6x640000gn/T//ccYNSpsl.s:190    .text._Error_Handler:0000000000000000 _Error_Handler
/var/folders/m5/1z2v3_dd2cg5xnclvhns6x640000gn/T//ccYNSpsl.s:205    .text.SystemClock_Config:0000000000000000 $t
/var/folders/m5/1z2v3_dd2cg5xnclvhns6x640000gn/T//ccYNSpsl.s:210    .text.SystemClock_Config:0000000000000000 SystemClock_Config
/var/folders/m5/1z2v3_dd2cg5xnclvhns6x640000gn/T//ccYNSpsl.s:335    .text.SystemClock_Config:00000000000000b4 $d
/var/folders/m5/1z2v3_dd2cg5xnclvhns6x640000gn/T//ccYNSpsl.s:343    .text.main_init:0000000000000000 $t
/var/folders/m5/1z2v3_dd2cg5xnclvhns6x640000gn/T//ccYNSpsl.s:348    .text.main_init:0000000000000000 main_init
/var/folders/m5/1z2v3_dd2cg5xnclvhns6x640000gn/T//ccYNSpsl.s:373    .rodata.str1.4:0000000000000000 $d
                     .debug_frame:0000000000000010 $d

UNDEFINED SYMBOLS
HAL_GPIO_WritePin
HAL_GPIO_Init
HAL_GPIO_TogglePin
HAL_RCC_OscConfig
HAL_RCC_ClockConfig
HAL_RCC_GetHCLKFreq
HAL_SYSTICK_Config
HAL_SYSTICK_CLKSourceConfig
HAL_NVIC_SetPriority
HAL_Init
