ARM GAS  /var/folders/m5/1z2v3_dd2cg5xnclvhns6x640000gn/T//ccsZslox.s 			page 1


   1              		.syntax unified
   2              		.cpu cortex-m4
   3              		.eabi_attribute 27, 3
   4              		.eabi_attribute 28, 1
   5              		.fpu fpv4-sp-d16
   6              		.eabi_attribute 20, 1
   7              		.eabi_attribute 21, 1
   8              		.eabi_attribute 23, 3
   9              		.eabi_attribute 24, 1
  10              		.eabi_attribute 25, 1
  11              		.eabi_attribute 26, 1
  12              		.eabi_attribute 30, 1
  13              		.eabi_attribute 34, 1
  14              		.eabi_attribute 18, 4
  15              		.thumb
  16              		.file	"stm32f4xx_hal_dma_ex.c"
  17              		.text
  18              	.Ltext0:
  19              		.cfi_sections	.debug_frame
  20              		.section	.text.DMA_MultiBufferSetConfig,"ax",%progbits
  21              		.align	2
  22              		.thumb
  23              		.thumb_func
  25              	DMA_MultiBufferSetConfig:
  26              	.LFB126:
  27              		.file 1 "Drivers/STM32F4xx_HAL_Driver/Src/stm32f4xx_hal_dma_ex.c"
   1:Drivers/STM32F4xx_HAL_Driver/Src/stm32f4xx_hal_dma_ex.c **** /**
   2:Drivers/STM32F4xx_HAL_Driver/Src/stm32f4xx_hal_dma_ex.c ****   ******************************************************************************
   3:Drivers/STM32F4xx_HAL_Driver/Src/stm32f4xx_hal_dma_ex.c ****   * @file    stm32f4xx_hal_dma_ex.c
   4:Drivers/STM32F4xx_HAL_Driver/Src/stm32f4xx_hal_dma_ex.c ****   * @author  MCD Application Team
   5:Drivers/STM32F4xx_HAL_Driver/Src/stm32f4xx_hal_dma_ex.c ****   * @version V1.7.1
   6:Drivers/STM32F4xx_HAL_Driver/Src/stm32f4xx_hal_dma_ex.c ****   * @date    14-April-2017
   7:Drivers/STM32F4xx_HAL_Driver/Src/stm32f4xx_hal_dma_ex.c ****   * @brief   DMA Extension HAL module driver
   8:Drivers/STM32F4xx_HAL_Driver/Src/stm32f4xx_hal_dma_ex.c ****   *         This file provides firmware functions to manage the following 
   9:Drivers/STM32F4xx_HAL_Driver/Src/stm32f4xx_hal_dma_ex.c ****   *         functionalities of the DMA Extension peripheral:
  10:Drivers/STM32F4xx_HAL_Driver/Src/stm32f4xx_hal_dma_ex.c ****   *           + Extended features functions
  11:Drivers/STM32F4xx_HAL_Driver/Src/stm32f4xx_hal_dma_ex.c ****   *
  12:Drivers/STM32F4xx_HAL_Driver/Src/stm32f4xx_hal_dma_ex.c ****   @verbatim
  13:Drivers/STM32F4xx_HAL_Driver/Src/stm32f4xx_hal_dma_ex.c ****   ==============================================================================
  14:Drivers/STM32F4xx_HAL_Driver/Src/stm32f4xx_hal_dma_ex.c ****                         ##### How to use this driver #####
  15:Drivers/STM32F4xx_HAL_Driver/Src/stm32f4xx_hal_dma_ex.c ****   ==============================================================================
  16:Drivers/STM32F4xx_HAL_Driver/Src/stm32f4xx_hal_dma_ex.c ****   [..]
  17:Drivers/STM32F4xx_HAL_Driver/Src/stm32f4xx_hal_dma_ex.c ****   The DMA Extension HAL driver can be used as follows:
  18:Drivers/STM32F4xx_HAL_Driver/Src/stm32f4xx_hal_dma_ex.c ****    (#) Start a multi buffer transfer using the HAL_DMA_MultiBufferStart() function
  19:Drivers/STM32F4xx_HAL_Driver/Src/stm32f4xx_hal_dma_ex.c ****        for polling mode or HAL_DMA_MultiBufferStart_IT() for interrupt mode.
  20:Drivers/STM32F4xx_HAL_Driver/Src/stm32f4xx_hal_dma_ex.c ****                    
  21:Drivers/STM32F4xx_HAL_Driver/Src/stm32f4xx_hal_dma_ex.c ****      -@-  In Memory-to-Memory transfer mode, Multi (Double) Buffer mode is not allowed.
  22:Drivers/STM32F4xx_HAL_Driver/Src/stm32f4xx_hal_dma_ex.c ****      -@-  When Multi (Double) Buffer mode is enabled the, transfer is circular by default.
  23:Drivers/STM32F4xx_HAL_Driver/Src/stm32f4xx_hal_dma_ex.c ****      -@-  In Multi (Double) buffer mode, it is possible to update the base address for 
  24:Drivers/STM32F4xx_HAL_Driver/Src/stm32f4xx_hal_dma_ex.c ****           the AHB memory port on the fly (DMA_SxM0AR or DMA_SxM1AR) when the stream is enabled. 
  25:Drivers/STM32F4xx_HAL_Driver/Src/stm32f4xx_hal_dma_ex.c ****   
  26:Drivers/STM32F4xx_HAL_Driver/Src/stm32f4xx_hal_dma_ex.c ****   @endverbatim
  27:Drivers/STM32F4xx_HAL_Driver/Src/stm32f4xx_hal_dma_ex.c ****   ******************************************************************************
  28:Drivers/STM32F4xx_HAL_Driver/Src/stm32f4xx_hal_dma_ex.c ****   * @attention
  29:Drivers/STM32F4xx_HAL_Driver/Src/stm32f4xx_hal_dma_ex.c ****   *
  30:Drivers/STM32F4xx_HAL_Driver/Src/stm32f4xx_hal_dma_ex.c ****   * <h2><center>&copy; COPYRIGHT(c) 2017 STMicroelectronics</center></h2>
  31:Drivers/STM32F4xx_HAL_Driver/Src/stm32f4xx_hal_dma_ex.c ****   *
ARM GAS  /var/folders/m5/1z2v3_dd2cg5xnclvhns6x640000gn/T//ccsZslox.s 			page 2


  32:Drivers/STM32F4xx_HAL_Driver/Src/stm32f4xx_hal_dma_ex.c ****   * Redistribution and use in source and binary forms, with or without modification,
  33:Drivers/STM32F4xx_HAL_Driver/Src/stm32f4xx_hal_dma_ex.c ****   * are permitted provided that the following conditions are met:
  34:Drivers/STM32F4xx_HAL_Driver/Src/stm32f4xx_hal_dma_ex.c ****   *   1. Redistributions of source code must retain the above copyright notice,
  35:Drivers/STM32F4xx_HAL_Driver/Src/stm32f4xx_hal_dma_ex.c ****   *      this list of conditions and the following disclaimer.
  36:Drivers/STM32F4xx_HAL_Driver/Src/stm32f4xx_hal_dma_ex.c ****   *   2. Redistributions in binary form must reproduce the above copyright notice,
  37:Drivers/STM32F4xx_HAL_Driver/Src/stm32f4xx_hal_dma_ex.c ****   *      this list of conditions and the following disclaimer in the documentation
  38:Drivers/STM32F4xx_HAL_Driver/Src/stm32f4xx_hal_dma_ex.c ****   *      and/or other materials provided with the distribution.
  39:Drivers/STM32F4xx_HAL_Driver/Src/stm32f4xx_hal_dma_ex.c ****   *   3. Neither the name of STMicroelectronics nor the names of its contributors
  40:Drivers/STM32F4xx_HAL_Driver/Src/stm32f4xx_hal_dma_ex.c ****   *      may be used to endorse or promote products derived from this software
  41:Drivers/STM32F4xx_HAL_Driver/Src/stm32f4xx_hal_dma_ex.c ****   *      without specific prior written permission.
  42:Drivers/STM32F4xx_HAL_Driver/Src/stm32f4xx_hal_dma_ex.c ****   *
  43:Drivers/STM32F4xx_HAL_Driver/Src/stm32f4xx_hal_dma_ex.c ****   * THIS SOFTWARE IS PROVIDED BY THE COPYRIGHT HOLDERS AND CONTRIBUTORS "AS IS"
  44:Drivers/STM32F4xx_HAL_Driver/Src/stm32f4xx_hal_dma_ex.c ****   * AND ANY EXPRESS OR IMPLIED WARRANTIES, INCLUDING, BUT NOT LIMITED TO, THE
  45:Drivers/STM32F4xx_HAL_Driver/Src/stm32f4xx_hal_dma_ex.c ****   * IMPLIED WARRANTIES OF MERCHANTABILITY AND FITNESS FOR A PARTICULAR PURPOSE ARE
  46:Drivers/STM32F4xx_HAL_Driver/Src/stm32f4xx_hal_dma_ex.c ****   * DISCLAIMED. IN NO EVENT SHALL THE COPYRIGHT HOLDER OR CONTRIBUTORS BE LIABLE
  47:Drivers/STM32F4xx_HAL_Driver/Src/stm32f4xx_hal_dma_ex.c ****   * FOR ANY DIRECT, INDIRECT, INCIDENTAL, SPECIAL, EXEMPLARY, OR CONSEQUENTIAL
  48:Drivers/STM32F4xx_HAL_Driver/Src/stm32f4xx_hal_dma_ex.c ****   * DAMAGES (INCLUDING, BUT NOT LIMITED TO, PROCUREMENT OF SUBSTITUTE GOODS OR
  49:Drivers/STM32F4xx_HAL_Driver/Src/stm32f4xx_hal_dma_ex.c ****   * SERVICES; LOSS OF USE, DATA, OR PROFITS; OR BUSINESS INTERRUPTION) HOWEVER
  50:Drivers/STM32F4xx_HAL_Driver/Src/stm32f4xx_hal_dma_ex.c ****   * CAUSED AND ON ANY THEORY OF LIABILITY, WHETHER IN CONTRACT, STRICT LIABILITY,
  51:Drivers/STM32F4xx_HAL_Driver/Src/stm32f4xx_hal_dma_ex.c ****   * OR TORT (INCLUDING NEGLIGENCE OR OTHERWISE) ARISING IN ANY WAY OUT OF THE USE
  52:Drivers/STM32F4xx_HAL_Driver/Src/stm32f4xx_hal_dma_ex.c ****   * OF THIS SOFTWARE, EVEN IF ADVISED OF THE POSSIBILITY OF SUCH DAMAGE.
  53:Drivers/STM32F4xx_HAL_Driver/Src/stm32f4xx_hal_dma_ex.c ****   *
  54:Drivers/STM32F4xx_HAL_Driver/Src/stm32f4xx_hal_dma_ex.c ****   ******************************************************************************
  55:Drivers/STM32F4xx_HAL_Driver/Src/stm32f4xx_hal_dma_ex.c ****   */
  56:Drivers/STM32F4xx_HAL_Driver/Src/stm32f4xx_hal_dma_ex.c **** 
  57:Drivers/STM32F4xx_HAL_Driver/Src/stm32f4xx_hal_dma_ex.c **** /* Includes ------------------------------------------------------------------*/
  58:Drivers/STM32F4xx_HAL_Driver/Src/stm32f4xx_hal_dma_ex.c **** #include "stm32f4xx_hal.h"
  59:Drivers/STM32F4xx_HAL_Driver/Src/stm32f4xx_hal_dma_ex.c **** 
  60:Drivers/STM32F4xx_HAL_Driver/Src/stm32f4xx_hal_dma_ex.c **** /** @addtogroup STM32F4xx_HAL_Driver
  61:Drivers/STM32F4xx_HAL_Driver/Src/stm32f4xx_hal_dma_ex.c ****   * @{
  62:Drivers/STM32F4xx_HAL_Driver/Src/stm32f4xx_hal_dma_ex.c ****   */
  63:Drivers/STM32F4xx_HAL_Driver/Src/stm32f4xx_hal_dma_ex.c **** 
  64:Drivers/STM32F4xx_HAL_Driver/Src/stm32f4xx_hal_dma_ex.c **** /** @defgroup DMAEx DMAEx
  65:Drivers/STM32F4xx_HAL_Driver/Src/stm32f4xx_hal_dma_ex.c ****   * @brief DMA Extended HAL module driver
  66:Drivers/STM32F4xx_HAL_Driver/Src/stm32f4xx_hal_dma_ex.c ****   * @{
  67:Drivers/STM32F4xx_HAL_Driver/Src/stm32f4xx_hal_dma_ex.c ****   */
  68:Drivers/STM32F4xx_HAL_Driver/Src/stm32f4xx_hal_dma_ex.c **** 
  69:Drivers/STM32F4xx_HAL_Driver/Src/stm32f4xx_hal_dma_ex.c **** #ifdef HAL_DMA_MODULE_ENABLED
  70:Drivers/STM32F4xx_HAL_Driver/Src/stm32f4xx_hal_dma_ex.c **** 
  71:Drivers/STM32F4xx_HAL_Driver/Src/stm32f4xx_hal_dma_ex.c **** /* Private types -------------------------------------------------------------*/
  72:Drivers/STM32F4xx_HAL_Driver/Src/stm32f4xx_hal_dma_ex.c **** /* Private variables ---------------------------------------------------------*/
  73:Drivers/STM32F4xx_HAL_Driver/Src/stm32f4xx_hal_dma_ex.c **** /* Private Constants ---------------------------------------------------------*/
  74:Drivers/STM32F4xx_HAL_Driver/Src/stm32f4xx_hal_dma_ex.c **** /* Private macros ------------------------------------------------------------*/
  75:Drivers/STM32F4xx_HAL_Driver/Src/stm32f4xx_hal_dma_ex.c **** /* Private functions ---------------------------------------------------------*/
  76:Drivers/STM32F4xx_HAL_Driver/Src/stm32f4xx_hal_dma_ex.c **** /** @addtogroup DMAEx_Private_Functions
  77:Drivers/STM32F4xx_HAL_Driver/Src/stm32f4xx_hal_dma_ex.c ****   * @{
  78:Drivers/STM32F4xx_HAL_Driver/Src/stm32f4xx_hal_dma_ex.c ****   */
  79:Drivers/STM32F4xx_HAL_Driver/Src/stm32f4xx_hal_dma_ex.c **** static void DMA_MultiBufferSetConfig(DMA_HandleTypeDef *hdma, uint32_t SrcAddress, uint32_t DstAddr
  80:Drivers/STM32F4xx_HAL_Driver/Src/stm32f4xx_hal_dma_ex.c **** /**
  81:Drivers/STM32F4xx_HAL_Driver/Src/stm32f4xx_hal_dma_ex.c ****   * @}
  82:Drivers/STM32F4xx_HAL_Driver/Src/stm32f4xx_hal_dma_ex.c ****   */
  83:Drivers/STM32F4xx_HAL_Driver/Src/stm32f4xx_hal_dma_ex.c **** 
  84:Drivers/STM32F4xx_HAL_Driver/Src/stm32f4xx_hal_dma_ex.c **** /* Exported functions ---------------------------------------------------------*/
  85:Drivers/STM32F4xx_HAL_Driver/Src/stm32f4xx_hal_dma_ex.c **** 
  86:Drivers/STM32F4xx_HAL_Driver/Src/stm32f4xx_hal_dma_ex.c **** /** @addtogroup DMAEx_Exported_Functions
  87:Drivers/STM32F4xx_HAL_Driver/Src/stm32f4xx_hal_dma_ex.c ****   * @{
  88:Drivers/STM32F4xx_HAL_Driver/Src/stm32f4xx_hal_dma_ex.c ****   */
ARM GAS  /var/folders/m5/1z2v3_dd2cg5xnclvhns6x640000gn/T//ccsZslox.s 			page 3


  89:Drivers/STM32F4xx_HAL_Driver/Src/stm32f4xx_hal_dma_ex.c **** 
  90:Drivers/STM32F4xx_HAL_Driver/Src/stm32f4xx_hal_dma_ex.c **** 
  91:Drivers/STM32F4xx_HAL_Driver/Src/stm32f4xx_hal_dma_ex.c **** /** @addtogroup DMAEx_Exported_Functions_Group1
  92:Drivers/STM32F4xx_HAL_Driver/Src/stm32f4xx_hal_dma_ex.c ****   *
  93:Drivers/STM32F4xx_HAL_Driver/Src/stm32f4xx_hal_dma_ex.c **** @verbatim   
  94:Drivers/STM32F4xx_HAL_Driver/Src/stm32f4xx_hal_dma_ex.c ****  ===============================================================================
  95:Drivers/STM32F4xx_HAL_Driver/Src/stm32f4xx_hal_dma_ex.c ****                 #####  Extended features functions  #####
  96:Drivers/STM32F4xx_HAL_Driver/Src/stm32f4xx_hal_dma_ex.c ****  ===============================================================================  
  97:Drivers/STM32F4xx_HAL_Driver/Src/stm32f4xx_hal_dma_ex.c ****     [..]  This section provides functions allowing to:
  98:Drivers/STM32F4xx_HAL_Driver/Src/stm32f4xx_hal_dma_ex.c ****       (+) Configure the source, destination address and data length and 
  99:Drivers/STM32F4xx_HAL_Driver/Src/stm32f4xx_hal_dma_ex.c ****           Start MultiBuffer DMA transfer
 100:Drivers/STM32F4xx_HAL_Driver/Src/stm32f4xx_hal_dma_ex.c ****       (+) Configure the source, destination address and data length and 
 101:Drivers/STM32F4xx_HAL_Driver/Src/stm32f4xx_hal_dma_ex.c ****           Start MultiBuffer DMA transfer with interrupt
 102:Drivers/STM32F4xx_HAL_Driver/Src/stm32f4xx_hal_dma_ex.c ****       (+) Change on the fly the memory0 or memory1 address.
 103:Drivers/STM32F4xx_HAL_Driver/Src/stm32f4xx_hal_dma_ex.c ****       
 104:Drivers/STM32F4xx_HAL_Driver/Src/stm32f4xx_hal_dma_ex.c **** @endverbatim
 105:Drivers/STM32F4xx_HAL_Driver/Src/stm32f4xx_hal_dma_ex.c ****   * @{
 106:Drivers/STM32F4xx_HAL_Driver/Src/stm32f4xx_hal_dma_ex.c ****   */
 107:Drivers/STM32F4xx_HAL_Driver/Src/stm32f4xx_hal_dma_ex.c **** 
 108:Drivers/STM32F4xx_HAL_Driver/Src/stm32f4xx_hal_dma_ex.c **** 
 109:Drivers/STM32F4xx_HAL_Driver/Src/stm32f4xx_hal_dma_ex.c **** /**
 110:Drivers/STM32F4xx_HAL_Driver/Src/stm32f4xx_hal_dma_ex.c ****   * @brief  Starts the multi_buffer DMA Transfer.
 111:Drivers/STM32F4xx_HAL_Driver/Src/stm32f4xx_hal_dma_ex.c ****   * @param  hdma      : pointer to a DMA_HandleTypeDef structure that contains
 112:Drivers/STM32F4xx_HAL_Driver/Src/stm32f4xx_hal_dma_ex.c ****   *                     the configuration information for the specified DMA Stream.  
 113:Drivers/STM32F4xx_HAL_Driver/Src/stm32f4xx_hal_dma_ex.c ****   * @param  SrcAddress: The source memory Buffer address
 114:Drivers/STM32F4xx_HAL_Driver/Src/stm32f4xx_hal_dma_ex.c ****   * @param  DstAddress: The destination memory Buffer address
 115:Drivers/STM32F4xx_HAL_Driver/Src/stm32f4xx_hal_dma_ex.c ****   * @param  SecondMemAddress: The second memory Buffer address in case of multi buffer Transfer  
 116:Drivers/STM32F4xx_HAL_Driver/Src/stm32f4xx_hal_dma_ex.c ****   * @param  DataLength: The length of data to be transferred from source to destination
 117:Drivers/STM32F4xx_HAL_Driver/Src/stm32f4xx_hal_dma_ex.c ****   * @retval HAL status
 118:Drivers/STM32F4xx_HAL_Driver/Src/stm32f4xx_hal_dma_ex.c ****   */
 119:Drivers/STM32F4xx_HAL_Driver/Src/stm32f4xx_hal_dma_ex.c **** HAL_StatusTypeDef HAL_DMAEx_MultiBufferStart(DMA_HandleTypeDef *hdma, uint32_t SrcAddress, uint32_t
 120:Drivers/STM32F4xx_HAL_Driver/Src/stm32f4xx_hal_dma_ex.c **** {
 121:Drivers/STM32F4xx_HAL_Driver/Src/stm32f4xx_hal_dma_ex.c ****   HAL_StatusTypeDef status = HAL_OK;
 122:Drivers/STM32F4xx_HAL_Driver/Src/stm32f4xx_hal_dma_ex.c ****   
 123:Drivers/STM32F4xx_HAL_Driver/Src/stm32f4xx_hal_dma_ex.c ****   /* Check the parameters */
 124:Drivers/STM32F4xx_HAL_Driver/Src/stm32f4xx_hal_dma_ex.c ****   assert_param(IS_DMA_BUFFER_SIZE(DataLength));
 125:Drivers/STM32F4xx_HAL_Driver/Src/stm32f4xx_hal_dma_ex.c ****   
 126:Drivers/STM32F4xx_HAL_Driver/Src/stm32f4xx_hal_dma_ex.c ****   /* Memory-to-memory transfer not supported in double buffering mode */
 127:Drivers/STM32F4xx_HAL_Driver/Src/stm32f4xx_hal_dma_ex.c ****   if (hdma->Init.Direction == DMA_MEMORY_TO_MEMORY)
 128:Drivers/STM32F4xx_HAL_Driver/Src/stm32f4xx_hal_dma_ex.c ****   {
 129:Drivers/STM32F4xx_HAL_Driver/Src/stm32f4xx_hal_dma_ex.c ****     hdma->ErrorCode = HAL_DMA_ERROR_NOT_SUPPORTED;
 130:Drivers/STM32F4xx_HAL_Driver/Src/stm32f4xx_hal_dma_ex.c ****     status = HAL_ERROR;
 131:Drivers/STM32F4xx_HAL_Driver/Src/stm32f4xx_hal_dma_ex.c ****   }
 132:Drivers/STM32F4xx_HAL_Driver/Src/stm32f4xx_hal_dma_ex.c ****   else
 133:Drivers/STM32F4xx_HAL_Driver/Src/stm32f4xx_hal_dma_ex.c ****   {
 134:Drivers/STM32F4xx_HAL_Driver/Src/stm32f4xx_hal_dma_ex.c ****     /* Process Locked */
 135:Drivers/STM32F4xx_HAL_Driver/Src/stm32f4xx_hal_dma_ex.c ****     __HAL_LOCK(hdma);
 136:Drivers/STM32F4xx_HAL_Driver/Src/stm32f4xx_hal_dma_ex.c ****     
 137:Drivers/STM32F4xx_HAL_Driver/Src/stm32f4xx_hal_dma_ex.c ****     if(HAL_DMA_STATE_READY == hdma->State)
 138:Drivers/STM32F4xx_HAL_Driver/Src/stm32f4xx_hal_dma_ex.c ****     {
 139:Drivers/STM32F4xx_HAL_Driver/Src/stm32f4xx_hal_dma_ex.c ****       /* Change DMA peripheral state */
 140:Drivers/STM32F4xx_HAL_Driver/Src/stm32f4xx_hal_dma_ex.c ****       hdma->State = HAL_DMA_STATE_BUSY; 
 141:Drivers/STM32F4xx_HAL_Driver/Src/stm32f4xx_hal_dma_ex.c ****       
 142:Drivers/STM32F4xx_HAL_Driver/Src/stm32f4xx_hal_dma_ex.c ****       /* Enable the double buffer mode */
 143:Drivers/STM32F4xx_HAL_Driver/Src/stm32f4xx_hal_dma_ex.c ****       hdma->Instance->CR |= (uint32_t)DMA_SxCR_DBM;
 144:Drivers/STM32F4xx_HAL_Driver/Src/stm32f4xx_hal_dma_ex.c ****       
 145:Drivers/STM32F4xx_HAL_Driver/Src/stm32f4xx_hal_dma_ex.c ****       /* Configure DMA Stream destination address */
ARM GAS  /var/folders/m5/1z2v3_dd2cg5xnclvhns6x640000gn/T//ccsZslox.s 			page 4


 146:Drivers/STM32F4xx_HAL_Driver/Src/stm32f4xx_hal_dma_ex.c ****       hdma->Instance->M1AR = SecondMemAddress;
 147:Drivers/STM32F4xx_HAL_Driver/Src/stm32f4xx_hal_dma_ex.c ****       
 148:Drivers/STM32F4xx_HAL_Driver/Src/stm32f4xx_hal_dma_ex.c ****       /* Configure the source, destination address and the data length */
 149:Drivers/STM32F4xx_HAL_Driver/Src/stm32f4xx_hal_dma_ex.c ****       DMA_MultiBufferSetConfig(hdma, SrcAddress, DstAddress, DataLength);
 150:Drivers/STM32F4xx_HAL_Driver/Src/stm32f4xx_hal_dma_ex.c ****       
 151:Drivers/STM32F4xx_HAL_Driver/Src/stm32f4xx_hal_dma_ex.c ****       /* Enable the peripheral */
 152:Drivers/STM32F4xx_HAL_Driver/Src/stm32f4xx_hal_dma_ex.c ****       __HAL_DMA_ENABLE(hdma);
 153:Drivers/STM32F4xx_HAL_Driver/Src/stm32f4xx_hal_dma_ex.c ****     }
 154:Drivers/STM32F4xx_HAL_Driver/Src/stm32f4xx_hal_dma_ex.c ****     else
 155:Drivers/STM32F4xx_HAL_Driver/Src/stm32f4xx_hal_dma_ex.c ****     {
 156:Drivers/STM32F4xx_HAL_Driver/Src/stm32f4xx_hal_dma_ex.c ****       /* Return error status */
 157:Drivers/STM32F4xx_HAL_Driver/Src/stm32f4xx_hal_dma_ex.c ****       status = HAL_BUSY;
 158:Drivers/STM32F4xx_HAL_Driver/Src/stm32f4xx_hal_dma_ex.c ****     }
 159:Drivers/STM32F4xx_HAL_Driver/Src/stm32f4xx_hal_dma_ex.c ****   }
 160:Drivers/STM32F4xx_HAL_Driver/Src/stm32f4xx_hal_dma_ex.c ****   return status;
 161:Drivers/STM32F4xx_HAL_Driver/Src/stm32f4xx_hal_dma_ex.c **** }
 162:Drivers/STM32F4xx_HAL_Driver/Src/stm32f4xx_hal_dma_ex.c **** 
 163:Drivers/STM32F4xx_HAL_Driver/Src/stm32f4xx_hal_dma_ex.c **** /**
 164:Drivers/STM32F4xx_HAL_Driver/Src/stm32f4xx_hal_dma_ex.c ****   * @brief  Starts the multi_buffer DMA Transfer with interrupt enabled.
 165:Drivers/STM32F4xx_HAL_Driver/Src/stm32f4xx_hal_dma_ex.c ****   * @param  hdma:       pointer to a DMA_HandleTypeDef structure that contains
 166:Drivers/STM32F4xx_HAL_Driver/Src/stm32f4xx_hal_dma_ex.c ****   *                     the configuration information for the specified DMA Stream.  
 167:Drivers/STM32F4xx_HAL_Driver/Src/stm32f4xx_hal_dma_ex.c ****   * @param  SrcAddress: The source memory Buffer address
 168:Drivers/STM32F4xx_HAL_Driver/Src/stm32f4xx_hal_dma_ex.c ****   * @param  DstAddress: The destination memory Buffer address
 169:Drivers/STM32F4xx_HAL_Driver/Src/stm32f4xx_hal_dma_ex.c ****   * @param  SecondMemAddress: The second memory Buffer address in case of multi buffer Transfer  
 170:Drivers/STM32F4xx_HAL_Driver/Src/stm32f4xx_hal_dma_ex.c ****   * @param  DataLength: The length of data to be transferred from source to destination
 171:Drivers/STM32F4xx_HAL_Driver/Src/stm32f4xx_hal_dma_ex.c ****   * @retval HAL status
 172:Drivers/STM32F4xx_HAL_Driver/Src/stm32f4xx_hal_dma_ex.c ****   */
 173:Drivers/STM32F4xx_HAL_Driver/Src/stm32f4xx_hal_dma_ex.c **** HAL_StatusTypeDef HAL_DMAEx_MultiBufferStart_IT(DMA_HandleTypeDef *hdma, uint32_t SrcAddress, uint3
 174:Drivers/STM32F4xx_HAL_Driver/Src/stm32f4xx_hal_dma_ex.c **** {
 175:Drivers/STM32F4xx_HAL_Driver/Src/stm32f4xx_hal_dma_ex.c ****   HAL_StatusTypeDef status = HAL_OK;
 176:Drivers/STM32F4xx_HAL_Driver/Src/stm32f4xx_hal_dma_ex.c ****   
 177:Drivers/STM32F4xx_HAL_Driver/Src/stm32f4xx_hal_dma_ex.c ****   /* Check the parameters */
 178:Drivers/STM32F4xx_HAL_Driver/Src/stm32f4xx_hal_dma_ex.c ****   assert_param(IS_DMA_BUFFER_SIZE(DataLength));
 179:Drivers/STM32F4xx_HAL_Driver/Src/stm32f4xx_hal_dma_ex.c ****   
 180:Drivers/STM32F4xx_HAL_Driver/Src/stm32f4xx_hal_dma_ex.c ****   /* Memory-to-memory transfer not supported in double buffering mode */
 181:Drivers/STM32F4xx_HAL_Driver/Src/stm32f4xx_hal_dma_ex.c ****   if (hdma->Init.Direction == DMA_MEMORY_TO_MEMORY)
 182:Drivers/STM32F4xx_HAL_Driver/Src/stm32f4xx_hal_dma_ex.c ****   {
 183:Drivers/STM32F4xx_HAL_Driver/Src/stm32f4xx_hal_dma_ex.c ****     hdma->ErrorCode = HAL_DMA_ERROR_NOT_SUPPORTED;
 184:Drivers/STM32F4xx_HAL_Driver/Src/stm32f4xx_hal_dma_ex.c ****     return HAL_ERROR;
 185:Drivers/STM32F4xx_HAL_Driver/Src/stm32f4xx_hal_dma_ex.c ****   }
 186:Drivers/STM32F4xx_HAL_Driver/Src/stm32f4xx_hal_dma_ex.c ****   
 187:Drivers/STM32F4xx_HAL_Driver/Src/stm32f4xx_hal_dma_ex.c ****   /* Check callback functions */
 188:Drivers/STM32F4xx_HAL_Driver/Src/stm32f4xx_hal_dma_ex.c ****   if ((NULL == hdma->XferCpltCallback) || (NULL == hdma->XferM1CpltCallback) || (NULL == hdma->Xfer
 189:Drivers/STM32F4xx_HAL_Driver/Src/stm32f4xx_hal_dma_ex.c ****   {
 190:Drivers/STM32F4xx_HAL_Driver/Src/stm32f4xx_hal_dma_ex.c ****     hdma->ErrorCode = HAL_DMA_ERROR_PARAM;
 191:Drivers/STM32F4xx_HAL_Driver/Src/stm32f4xx_hal_dma_ex.c ****     return HAL_ERROR;
 192:Drivers/STM32F4xx_HAL_Driver/Src/stm32f4xx_hal_dma_ex.c ****   }
 193:Drivers/STM32F4xx_HAL_Driver/Src/stm32f4xx_hal_dma_ex.c ****   
 194:Drivers/STM32F4xx_HAL_Driver/Src/stm32f4xx_hal_dma_ex.c ****   /* Process locked */
 195:Drivers/STM32F4xx_HAL_Driver/Src/stm32f4xx_hal_dma_ex.c ****   __HAL_LOCK(hdma);
 196:Drivers/STM32F4xx_HAL_Driver/Src/stm32f4xx_hal_dma_ex.c ****   
 197:Drivers/STM32F4xx_HAL_Driver/Src/stm32f4xx_hal_dma_ex.c ****   if(HAL_DMA_STATE_READY == hdma->State)
 198:Drivers/STM32F4xx_HAL_Driver/Src/stm32f4xx_hal_dma_ex.c ****   {
 199:Drivers/STM32F4xx_HAL_Driver/Src/stm32f4xx_hal_dma_ex.c ****     /* Change DMA peripheral state */
 200:Drivers/STM32F4xx_HAL_Driver/Src/stm32f4xx_hal_dma_ex.c ****     hdma->State = HAL_DMA_STATE_BUSY;
 201:Drivers/STM32F4xx_HAL_Driver/Src/stm32f4xx_hal_dma_ex.c ****     
 202:Drivers/STM32F4xx_HAL_Driver/Src/stm32f4xx_hal_dma_ex.c ****     /* Initialize the error code */
ARM GAS  /var/folders/m5/1z2v3_dd2cg5xnclvhns6x640000gn/T//ccsZslox.s 			page 5


 203:Drivers/STM32F4xx_HAL_Driver/Src/stm32f4xx_hal_dma_ex.c ****     hdma->ErrorCode = HAL_DMA_ERROR_NONE;
 204:Drivers/STM32F4xx_HAL_Driver/Src/stm32f4xx_hal_dma_ex.c ****     
 205:Drivers/STM32F4xx_HAL_Driver/Src/stm32f4xx_hal_dma_ex.c ****     /* Enable the Double buffer mode */
 206:Drivers/STM32F4xx_HAL_Driver/Src/stm32f4xx_hal_dma_ex.c ****     hdma->Instance->CR |= (uint32_t)DMA_SxCR_DBM;
 207:Drivers/STM32F4xx_HAL_Driver/Src/stm32f4xx_hal_dma_ex.c ****     
 208:Drivers/STM32F4xx_HAL_Driver/Src/stm32f4xx_hal_dma_ex.c ****     /* Configure DMA Stream destination address */
 209:Drivers/STM32F4xx_HAL_Driver/Src/stm32f4xx_hal_dma_ex.c ****     hdma->Instance->M1AR = SecondMemAddress;
 210:Drivers/STM32F4xx_HAL_Driver/Src/stm32f4xx_hal_dma_ex.c ****     
 211:Drivers/STM32F4xx_HAL_Driver/Src/stm32f4xx_hal_dma_ex.c ****     /* Configure the source, destination address and the data length */
 212:Drivers/STM32F4xx_HAL_Driver/Src/stm32f4xx_hal_dma_ex.c ****     DMA_MultiBufferSetConfig(hdma, SrcAddress, DstAddress, DataLength); 
 213:Drivers/STM32F4xx_HAL_Driver/Src/stm32f4xx_hal_dma_ex.c ****     
 214:Drivers/STM32F4xx_HAL_Driver/Src/stm32f4xx_hal_dma_ex.c ****     /* Clear all flags */
 215:Drivers/STM32F4xx_HAL_Driver/Src/stm32f4xx_hal_dma_ex.c ****     __HAL_DMA_CLEAR_FLAG (hdma, __HAL_DMA_GET_TC_FLAG_INDEX(hdma));
 216:Drivers/STM32F4xx_HAL_Driver/Src/stm32f4xx_hal_dma_ex.c ****     __HAL_DMA_CLEAR_FLAG (hdma, __HAL_DMA_GET_HT_FLAG_INDEX(hdma));
 217:Drivers/STM32F4xx_HAL_Driver/Src/stm32f4xx_hal_dma_ex.c ****     __HAL_DMA_CLEAR_FLAG (hdma, __HAL_DMA_GET_TE_FLAG_INDEX(hdma));
 218:Drivers/STM32F4xx_HAL_Driver/Src/stm32f4xx_hal_dma_ex.c ****     __HAL_DMA_CLEAR_FLAG (hdma, __HAL_DMA_GET_DME_FLAG_INDEX(hdma));
 219:Drivers/STM32F4xx_HAL_Driver/Src/stm32f4xx_hal_dma_ex.c ****     __HAL_DMA_CLEAR_FLAG (hdma, __HAL_DMA_GET_FE_FLAG_INDEX(hdma));
 220:Drivers/STM32F4xx_HAL_Driver/Src/stm32f4xx_hal_dma_ex.c **** 
 221:Drivers/STM32F4xx_HAL_Driver/Src/stm32f4xx_hal_dma_ex.c ****     /* Enable Common interrupts*/
 222:Drivers/STM32F4xx_HAL_Driver/Src/stm32f4xx_hal_dma_ex.c ****     hdma->Instance->CR  |= DMA_IT_TC | DMA_IT_TE | DMA_IT_DME;
 223:Drivers/STM32F4xx_HAL_Driver/Src/stm32f4xx_hal_dma_ex.c ****     hdma->Instance->FCR |= DMA_IT_FE;
 224:Drivers/STM32F4xx_HAL_Driver/Src/stm32f4xx_hal_dma_ex.c ****     
 225:Drivers/STM32F4xx_HAL_Driver/Src/stm32f4xx_hal_dma_ex.c ****     if((hdma->XferHalfCpltCallback != NULL) || (hdma->XferM1HalfCpltCallback != NULL))
 226:Drivers/STM32F4xx_HAL_Driver/Src/stm32f4xx_hal_dma_ex.c ****     {
 227:Drivers/STM32F4xx_HAL_Driver/Src/stm32f4xx_hal_dma_ex.c ****       hdma->Instance->CR  |= DMA_IT_HT;
 228:Drivers/STM32F4xx_HAL_Driver/Src/stm32f4xx_hal_dma_ex.c ****     }
 229:Drivers/STM32F4xx_HAL_Driver/Src/stm32f4xx_hal_dma_ex.c ****     
 230:Drivers/STM32F4xx_HAL_Driver/Src/stm32f4xx_hal_dma_ex.c ****     /* Enable the peripheral */
 231:Drivers/STM32F4xx_HAL_Driver/Src/stm32f4xx_hal_dma_ex.c ****     __HAL_DMA_ENABLE(hdma); 
 232:Drivers/STM32F4xx_HAL_Driver/Src/stm32f4xx_hal_dma_ex.c ****   }
 233:Drivers/STM32F4xx_HAL_Driver/Src/stm32f4xx_hal_dma_ex.c ****   else
 234:Drivers/STM32F4xx_HAL_Driver/Src/stm32f4xx_hal_dma_ex.c ****   {     
 235:Drivers/STM32F4xx_HAL_Driver/Src/stm32f4xx_hal_dma_ex.c ****     /* Process unlocked */
 236:Drivers/STM32F4xx_HAL_Driver/Src/stm32f4xx_hal_dma_ex.c ****     __HAL_UNLOCK(hdma);	  
 237:Drivers/STM32F4xx_HAL_Driver/Src/stm32f4xx_hal_dma_ex.c ****     
 238:Drivers/STM32F4xx_HAL_Driver/Src/stm32f4xx_hal_dma_ex.c ****     /* Return error status */
 239:Drivers/STM32F4xx_HAL_Driver/Src/stm32f4xx_hal_dma_ex.c ****     status = HAL_BUSY;
 240:Drivers/STM32F4xx_HAL_Driver/Src/stm32f4xx_hal_dma_ex.c ****   }  
 241:Drivers/STM32F4xx_HAL_Driver/Src/stm32f4xx_hal_dma_ex.c ****   return status; 
 242:Drivers/STM32F4xx_HAL_Driver/Src/stm32f4xx_hal_dma_ex.c **** }
 243:Drivers/STM32F4xx_HAL_Driver/Src/stm32f4xx_hal_dma_ex.c **** 
 244:Drivers/STM32F4xx_HAL_Driver/Src/stm32f4xx_hal_dma_ex.c **** /**
 245:Drivers/STM32F4xx_HAL_Driver/Src/stm32f4xx_hal_dma_ex.c ****   * @brief  Change the memory0 or memory1 address on the fly.
 246:Drivers/STM32F4xx_HAL_Driver/Src/stm32f4xx_hal_dma_ex.c ****   * @param  hdma:       pointer to a DMA_HandleTypeDef structure that contains
 247:Drivers/STM32F4xx_HAL_Driver/Src/stm32f4xx_hal_dma_ex.c ****   *                     the configuration information for the specified DMA Stream.  
 248:Drivers/STM32F4xx_HAL_Driver/Src/stm32f4xx_hal_dma_ex.c ****   * @param  Address:    The new address
 249:Drivers/STM32F4xx_HAL_Driver/Src/stm32f4xx_hal_dma_ex.c ****   * @param  memory:     the memory to be changed, This parameter can be one of 
 250:Drivers/STM32F4xx_HAL_Driver/Src/stm32f4xx_hal_dma_ex.c ****   *                     the following values:
 251:Drivers/STM32F4xx_HAL_Driver/Src/stm32f4xx_hal_dma_ex.c ****   *                      MEMORY0 /
 252:Drivers/STM32F4xx_HAL_Driver/Src/stm32f4xx_hal_dma_ex.c ****   *                      MEMORY1
 253:Drivers/STM32F4xx_HAL_Driver/Src/stm32f4xx_hal_dma_ex.c ****   * @note   The MEMORY0 address can be changed only when the current transfer use
 254:Drivers/STM32F4xx_HAL_Driver/Src/stm32f4xx_hal_dma_ex.c ****   *         MEMORY1 and the MEMORY1 address can be changed only when the current 
 255:Drivers/STM32F4xx_HAL_Driver/Src/stm32f4xx_hal_dma_ex.c ****   *         transfer use MEMORY0.
 256:Drivers/STM32F4xx_HAL_Driver/Src/stm32f4xx_hal_dma_ex.c ****   * @retval HAL status
 257:Drivers/STM32F4xx_HAL_Driver/Src/stm32f4xx_hal_dma_ex.c ****   */
 258:Drivers/STM32F4xx_HAL_Driver/Src/stm32f4xx_hal_dma_ex.c **** HAL_StatusTypeDef HAL_DMAEx_ChangeMemory(DMA_HandleTypeDef *hdma, uint32_t Address, HAL_DMA_MemoryT
 259:Drivers/STM32F4xx_HAL_Driver/Src/stm32f4xx_hal_dma_ex.c **** {
ARM GAS  /var/folders/m5/1z2v3_dd2cg5xnclvhns6x640000gn/T//ccsZslox.s 			page 6


 260:Drivers/STM32F4xx_HAL_Driver/Src/stm32f4xx_hal_dma_ex.c ****   if(memory == MEMORY0)
 261:Drivers/STM32F4xx_HAL_Driver/Src/stm32f4xx_hal_dma_ex.c ****   {
 262:Drivers/STM32F4xx_HAL_Driver/Src/stm32f4xx_hal_dma_ex.c ****     /* change the memory0 address */
 263:Drivers/STM32F4xx_HAL_Driver/Src/stm32f4xx_hal_dma_ex.c ****     hdma->Instance->M0AR = Address;
 264:Drivers/STM32F4xx_HAL_Driver/Src/stm32f4xx_hal_dma_ex.c ****   }
 265:Drivers/STM32F4xx_HAL_Driver/Src/stm32f4xx_hal_dma_ex.c ****   else
 266:Drivers/STM32F4xx_HAL_Driver/Src/stm32f4xx_hal_dma_ex.c ****   {
 267:Drivers/STM32F4xx_HAL_Driver/Src/stm32f4xx_hal_dma_ex.c ****     /* change the memory1 address */
 268:Drivers/STM32F4xx_HAL_Driver/Src/stm32f4xx_hal_dma_ex.c ****     hdma->Instance->M1AR = Address;
 269:Drivers/STM32F4xx_HAL_Driver/Src/stm32f4xx_hal_dma_ex.c ****   }
 270:Drivers/STM32F4xx_HAL_Driver/Src/stm32f4xx_hal_dma_ex.c **** 
 271:Drivers/STM32F4xx_HAL_Driver/Src/stm32f4xx_hal_dma_ex.c ****   return HAL_OK;
 272:Drivers/STM32F4xx_HAL_Driver/Src/stm32f4xx_hal_dma_ex.c **** }
 273:Drivers/STM32F4xx_HAL_Driver/Src/stm32f4xx_hal_dma_ex.c **** 
 274:Drivers/STM32F4xx_HAL_Driver/Src/stm32f4xx_hal_dma_ex.c **** /**
 275:Drivers/STM32F4xx_HAL_Driver/Src/stm32f4xx_hal_dma_ex.c ****   * @}
 276:Drivers/STM32F4xx_HAL_Driver/Src/stm32f4xx_hal_dma_ex.c ****   */
 277:Drivers/STM32F4xx_HAL_Driver/Src/stm32f4xx_hal_dma_ex.c **** 
 278:Drivers/STM32F4xx_HAL_Driver/Src/stm32f4xx_hal_dma_ex.c **** /**
 279:Drivers/STM32F4xx_HAL_Driver/Src/stm32f4xx_hal_dma_ex.c ****   * @}
 280:Drivers/STM32F4xx_HAL_Driver/Src/stm32f4xx_hal_dma_ex.c ****   */
 281:Drivers/STM32F4xx_HAL_Driver/Src/stm32f4xx_hal_dma_ex.c **** 
 282:Drivers/STM32F4xx_HAL_Driver/Src/stm32f4xx_hal_dma_ex.c **** /** @addtogroup DMAEx_Private_Functions
 283:Drivers/STM32F4xx_HAL_Driver/Src/stm32f4xx_hal_dma_ex.c ****   * @{
 284:Drivers/STM32F4xx_HAL_Driver/Src/stm32f4xx_hal_dma_ex.c ****   */
 285:Drivers/STM32F4xx_HAL_Driver/Src/stm32f4xx_hal_dma_ex.c **** 
 286:Drivers/STM32F4xx_HAL_Driver/Src/stm32f4xx_hal_dma_ex.c **** /**
 287:Drivers/STM32F4xx_HAL_Driver/Src/stm32f4xx_hal_dma_ex.c ****   * @brief  Set the DMA Transfer parameter.
 288:Drivers/STM32F4xx_HAL_Driver/Src/stm32f4xx_hal_dma_ex.c ****   * @param  hdma:       pointer to a DMA_HandleTypeDef structure that contains
 289:Drivers/STM32F4xx_HAL_Driver/Src/stm32f4xx_hal_dma_ex.c ****   *                     the configuration information for the specified DMA Stream.  
 290:Drivers/STM32F4xx_HAL_Driver/Src/stm32f4xx_hal_dma_ex.c ****   * @param  SrcAddress: The source memory Buffer address
 291:Drivers/STM32F4xx_HAL_Driver/Src/stm32f4xx_hal_dma_ex.c ****   * @param  DstAddress: The destination memory Buffer address
 292:Drivers/STM32F4xx_HAL_Driver/Src/stm32f4xx_hal_dma_ex.c ****   * @param  DataLength: The length of data to be transferred from source to destination
 293:Drivers/STM32F4xx_HAL_Driver/Src/stm32f4xx_hal_dma_ex.c ****   * @retval HAL status
 294:Drivers/STM32F4xx_HAL_Driver/Src/stm32f4xx_hal_dma_ex.c ****   */
 295:Drivers/STM32F4xx_HAL_Driver/Src/stm32f4xx_hal_dma_ex.c **** static void DMA_MultiBufferSetConfig(DMA_HandleTypeDef *hdma, uint32_t SrcAddress, uint32_t DstAddr
 296:Drivers/STM32F4xx_HAL_Driver/Src/stm32f4xx_hal_dma_ex.c **** {  
  28              		.loc 1 296 0
  29              		.cfi_startproc
  30              		@ args = 0, pretend = 0, frame = 0
  31              		@ frame_needed = 0, uses_anonymous_args = 0
  32              		@ link register save eliminated.
  33              	.LVL0:
  34 0000 10B4     		push	{r4}
  35              	.LCFI0:
  36              		.cfi_def_cfa_offset 4
  37              		.cfi_offset 4, -4
 297:Drivers/STM32F4xx_HAL_Driver/Src/stm32f4xx_hal_dma_ex.c ****   /* Configure DMA Stream data length */
 298:Drivers/STM32F4xx_HAL_Driver/Src/stm32f4xx_hal_dma_ex.c ****   hdma->Instance->NDTR = DataLength;
  38              		.loc 1 298 0
  39 0002 0468     		ldr	r4, [r0]
  40 0004 6360     		str	r3, [r4, #4]
 299:Drivers/STM32F4xx_HAL_Driver/Src/stm32f4xx_hal_dma_ex.c ****   
 300:Drivers/STM32F4xx_HAL_Driver/Src/stm32f4xx_hal_dma_ex.c ****   /* Peripheral to Memory */
 301:Drivers/STM32F4xx_HAL_Driver/Src/stm32f4xx_hal_dma_ex.c ****   if((hdma->Init.Direction) == DMA_MEMORY_TO_PERIPH)
  41              		.loc 1 301 0
  42 0006 8368     		ldr	r3, [r0, #8]
ARM GAS  /var/folders/m5/1z2v3_dd2cg5xnclvhns6x640000gn/T//ccsZslox.s 			page 7


  43              	.LVL1:
  44 0008 402B     		cmp	r3, #64
  45 000a 04D1     		bne	.L2
 302:Drivers/STM32F4xx_HAL_Driver/Src/stm32f4xx_hal_dma_ex.c ****   {   
 303:Drivers/STM32F4xx_HAL_Driver/Src/stm32f4xx_hal_dma_ex.c ****     /* Configure DMA Stream destination address */
 304:Drivers/STM32F4xx_HAL_Driver/Src/stm32f4xx_hal_dma_ex.c ****     hdma->Instance->PAR = DstAddress;
  46              		.loc 1 304 0
  47 000c 0368     		ldr	r3, [r0]
  48 000e 9A60     		str	r2, [r3, #8]
  49              	.LVL2:
 305:Drivers/STM32F4xx_HAL_Driver/Src/stm32f4xx_hal_dma_ex.c ****     
 306:Drivers/STM32F4xx_HAL_Driver/Src/stm32f4xx_hal_dma_ex.c ****     /* Configure DMA Stream source address */
 307:Drivers/STM32F4xx_HAL_Driver/Src/stm32f4xx_hal_dma_ex.c ****     hdma->Instance->M0AR = SrcAddress;
  50              		.loc 1 307 0
  51 0010 0368     		ldr	r3, [r0]
  52 0012 D960     		str	r1, [r3, #12]
  53 0014 03E0     		b	.L1
  54              	.LVL3:
  55              	.L2:
 308:Drivers/STM32F4xx_HAL_Driver/Src/stm32f4xx_hal_dma_ex.c ****   }
 309:Drivers/STM32F4xx_HAL_Driver/Src/stm32f4xx_hal_dma_ex.c ****   /* Memory to Peripheral */
 310:Drivers/STM32F4xx_HAL_Driver/Src/stm32f4xx_hal_dma_ex.c ****   else
 311:Drivers/STM32F4xx_HAL_Driver/Src/stm32f4xx_hal_dma_ex.c ****   {
 312:Drivers/STM32F4xx_HAL_Driver/Src/stm32f4xx_hal_dma_ex.c ****     /* Configure DMA Stream source address */
 313:Drivers/STM32F4xx_HAL_Driver/Src/stm32f4xx_hal_dma_ex.c ****     hdma->Instance->PAR = SrcAddress;
  56              		.loc 1 313 0
  57 0016 0368     		ldr	r3, [r0]
  58 0018 9960     		str	r1, [r3, #8]
  59              	.LVL4:
 314:Drivers/STM32F4xx_HAL_Driver/Src/stm32f4xx_hal_dma_ex.c ****     
 315:Drivers/STM32F4xx_HAL_Driver/Src/stm32f4xx_hal_dma_ex.c ****     /* Configure DMA Stream destination address */
 316:Drivers/STM32F4xx_HAL_Driver/Src/stm32f4xx_hal_dma_ex.c ****     hdma->Instance->M0AR = DstAddress;
  60              		.loc 1 316 0
  61 001a 0368     		ldr	r3, [r0]
  62 001c DA60     		str	r2, [r3, #12]
  63              	.L1:
 317:Drivers/STM32F4xx_HAL_Driver/Src/stm32f4xx_hal_dma_ex.c ****   }
 318:Drivers/STM32F4xx_HAL_Driver/Src/stm32f4xx_hal_dma_ex.c **** }
  64              		.loc 1 318 0
  65 001e 5DF8044B 		ldr	r4, [sp], #4
  66 0022 7047     		bx	lr
  67              		.cfi_endproc
  68              	.LFE126:
  70              		.section	.text.HAL_DMAEx_MultiBufferStart,"ax",%progbits
  71              		.align	2
  72              		.global	HAL_DMAEx_MultiBufferStart
  73              		.thumb
  74              		.thumb_func
  76              	HAL_DMAEx_MultiBufferStart:
  77              	.LFB123:
 120:Drivers/STM32F4xx_HAL_Driver/Src/stm32f4xx_hal_dma_ex.c **** {
  78              		.loc 1 120 0
  79              		.cfi_startproc
  80              		@ args = 4, pretend = 0, frame = 0
  81              		@ frame_needed = 0, uses_anonymous_args = 0
  82              	.LVL5:
  83 0000 38B5     		push	{r3, r4, r5, lr}
ARM GAS  /var/folders/m5/1z2v3_dd2cg5xnclvhns6x640000gn/T//ccsZslox.s 			page 8


  84              	.LCFI1:
  85              		.cfi_def_cfa_offset 16
  86              		.cfi_offset 3, -16
  87              		.cfi_offset 4, -12
  88              		.cfi_offset 5, -8
  89              		.cfi_offset 14, -4
  90 0002 0446     		mov	r4, r0
  91              	.LVL6:
 127:Drivers/STM32F4xx_HAL_Driver/Src/stm32f4xx_hal_dma_ex.c ****   if (hdma->Init.Direction == DMA_MEMORY_TO_MEMORY)
  92              		.loc 1 127 0
  93 0004 8068     		ldr	r0, [r0, #8]
  94              	.LVL7:
  95 0006 8028     		cmp	r0, #128
  96 0008 04D1     		bne	.L5
 129:Drivers/STM32F4xx_HAL_Driver/Src/stm32f4xx_hal_dma_ex.c ****     hdma->ErrorCode = HAL_DMA_ERROR_NOT_SUPPORTED;
  97              		.loc 1 129 0
  98 000a 4FF48073 		mov	r3, #256
  99              	.LVL8:
 100 000e 6365     		str	r3, [r4, #84]
 101              	.LVL9:
 130:Drivers/STM32F4xx_HAL_Driver/Src/stm32f4xx_hal_dma_ex.c ****     status = HAL_ERROR;
 102              		.loc 1 130 0
 103 0010 0120     		movs	r0, #1
 104 0012 38BD     		pop	{r3, r4, r5, pc}
 105              	.LVL10:
 106              	.L5:
 135:Drivers/STM32F4xx_HAL_Driver/Src/stm32f4xx_hal_dma_ex.c ****     __HAL_LOCK(hdma);
 107              		.loc 1 135 0
 108 0014 94F83400 		ldrb	r0, [r4, #52]	@ zero_extendqisi2
 109 0018 0128     		cmp	r0, #1
 110 001a 1ED0     		beq	.L8
 135:Drivers/STM32F4xx_HAL_Driver/Src/stm32f4xx_hal_dma_ex.c ****     __HAL_LOCK(hdma);
 111              		.loc 1 135 0 is_stmt 0 discriminator 2
 112 001c 0120     		movs	r0, #1
 113 001e 84F83400 		strb	r0, [r4, #52]
 137:Drivers/STM32F4xx_HAL_Driver/Src/stm32f4xx_hal_dma_ex.c ****     if(HAL_DMA_STATE_READY == hdma->State)
 114              		.loc 1 137 0 is_stmt 1 discriminator 2
 115 0022 94F83500 		ldrb	r0, [r4, #53]	@ zero_extendqisi2
 116 0026 C0B2     		uxtb	r0, r0
 117 0028 0128     		cmp	r0, #1
 118 002a 14D1     		bne	.L9
 140:Drivers/STM32F4xx_HAL_Driver/Src/stm32f4xx_hal_dma_ex.c ****       hdma->State = HAL_DMA_STATE_BUSY; 
 119              		.loc 1 140 0
 120 002c 0220     		movs	r0, #2
 121 002e 84F83500 		strb	r0, [r4, #53]
 143:Drivers/STM32F4xx_HAL_Driver/Src/stm32f4xx_hal_dma_ex.c ****       hdma->Instance->CR |= (uint32_t)DMA_SxCR_DBM;
 122              		.loc 1 143 0
 123 0032 2068     		ldr	r0, [r4]
 124 0034 0568     		ldr	r5, [r0]
 125 0036 45F48025 		orr	r5, r5, #262144
 126 003a 0560     		str	r5, [r0]
 146:Drivers/STM32F4xx_HAL_Driver/Src/stm32f4xx_hal_dma_ex.c ****       hdma->Instance->M1AR = SecondMemAddress;
 127              		.loc 1 146 0
 128 003c 2068     		ldr	r0, [r4]
 129 003e 0361     		str	r3, [r0, #16]
 149:Drivers/STM32F4xx_HAL_Driver/Src/stm32f4xx_hal_dma_ex.c ****       DMA_MultiBufferSetConfig(hdma, SrcAddress, DstAddress, DataLength);
 130              		.loc 1 149 0
ARM GAS  /var/folders/m5/1z2v3_dd2cg5xnclvhns6x640000gn/T//ccsZslox.s 			page 9


 131 0040 2046     		mov	r0, r4
 132 0042 049B     		ldr	r3, [sp, #16]
 133              	.LVL11:
 134 0044 FFF7FEFF 		bl	DMA_MultiBufferSetConfig
 135              	.LVL12:
 152:Drivers/STM32F4xx_HAL_Driver/Src/stm32f4xx_hal_dma_ex.c ****       __HAL_DMA_ENABLE(hdma);
 136              		.loc 1 152 0
 137 0048 2368     		ldr	r3, [r4]
 138 004a 1A68     		ldr	r2, [r3]
 139 004c 42F00102 		orr	r2, r2, #1
 140 0050 1A60     		str	r2, [r3]
 121:Drivers/STM32F4xx_HAL_Driver/Src/stm32f4xx_hal_dma_ex.c ****   HAL_StatusTypeDef status = HAL_OK;
 141              		.loc 1 121 0
 142 0052 0020     		movs	r0, #0
 143 0054 38BD     		pop	{r3, r4, r5, pc}
 144              	.LVL13:
 145              	.L9:
 157:Drivers/STM32F4xx_HAL_Driver/Src/stm32f4xx_hal_dma_ex.c ****       status = HAL_BUSY;
 146              		.loc 1 157 0
 147 0056 0220     		movs	r0, #2
 148              	.LVL14:
 160:Drivers/STM32F4xx_HAL_Driver/Src/stm32f4xx_hal_dma_ex.c ****   return status;
 149              		.loc 1 160 0
 150 0058 38BD     		pop	{r3, r4, r5, pc}
 151              	.LVL15:
 152              	.L8:
 135:Drivers/STM32F4xx_HAL_Driver/Src/stm32f4xx_hal_dma_ex.c ****     __HAL_LOCK(hdma);
 153              		.loc 1 135 0
 154 005a 0220     		movs	r0, #2
 161:Drivers/STM32F4xx_HAL_Driver/Src/stm32f4xx_hal_dma_ex.c **** }
 155              		.loc 1 161 0
 156 005c 38BD     		pop	{r3, r4, r5, pc}
 157              		.cfi_endproc
 158              	.LFE123:
 160 005e 00BF     		.section	.text.HAL_DMAEx_MultiBufferStart_IT,"ax",%progbits
 161              		.align	2
 162              		.global	HAL_DMAEx_MultiBufferStart_IT
 163              		.thumb
 164              		.thumb_func
 166              	HAL_DMAEx_MultiBufferStart_IT:
 167              	.LFB124:
 174:Drivers/STM32F4xx_HAL_Driver/Src/stm32f4xx_hal_dma_ex.c **** {
 168              		.loc 1 174 0
 169              		.cfi_startproc
 170              		@ args = 4, pretend = 0, frame = 0
 171              		@ frame_needed = 0, uses_anonymous_args = 0
 172              	.LVL16:
 173 0000 38B5     		push	{r3, r4, r5, lr}
 174              	.LCFI2:
 175              		.cfi_def_cfa_offset 16
 176              		.cfi_offset 3, -16
 177              		.cfi_offset 4, -12
 178              		.cfi_offset 5, -8
 179              		.cfi_offset 14, -4
 180 0002 0446     		mov	r4, r0
 181              	.LVL17:
 181:Drivers/STM32F4xx_HAL_Driver/Src/stm32f4xx_hal_dma_ex.c ****   if (hdma->Init.Direction == DMA_MEMORY_TO_MEMORY)
ARM GAS  /var/folders/m5/1z2v3_dd2cg5xnclvhns6x640000gn/T//ccsZslox.s 			page 10


 182              		.loc 1 181 0
 183 0004 8068     		ldr	r0, [r0, #8]
 184              	.LVL18:
 185 0006 8028     		cmp	r0, #128
 186 0008 04D1     		bne	.L11
 183:Drivers/STM32F4xx_HAL_Driver/Src/stm32f4xx_hal_dma_ex.c ****     hdma->ErrorCode = HAL_DMA_ERROR_NOT_SUPPORTED;
 187              		.loc 1 183 0
 188 000a 4FF48073 		mov	r3, #256
 189              	.LVL19:
 190 000e 6365     		str	r3, [r4, #84]
 184:Drivers/STM32F4xx_HAL_Driver/Src/stm32f4xx_hal_dma_ex.c ****     return HAL_ERROR;
 191              		.loc 1 184 0
 192 0010 0120     		movs	r0, #1
 193 0012 38BD     		pop	{r3, r4, r5, pc}
 194              	.LVL20:
 195              	.L11:
 188:Drivers/STM32F4xx_HAL_Driver/Src/stm32f4xx_hal_dma_ex.c ****   if ((NULL == hdma->XferCpltCallback) || (NULL == hdma->XferM1CpltCallback) || (NULL == hdma->Xfer
 196              		.loc 1 188 0
 197 0014 E06B     		ldr	r0, [r4, #60]
 198 0016 18B1     		cbz	r0, .L13
 188:Drivers/STM32F4xx_HAL_Driver/Src/stm32f4xx_hal_dma_ex.c ****   if ((NULL == hdma->XferCpltCallback) || (NULL == hdma->XferM1CpltCallback) || (NULL == hdma->Xfer
 199              		.loc 1 188 0 is_stmt 0 discriminator 1
 200 0018 606C     		ldr	r0, [r4, #68]
 201 001a 08B1     		cbz	r0, .L13
 202 001c E06C     		ldr	r0, [r4, #76]
 203 001e 18B9     		cbnz	r0, .L14
 204              	.L13:
 190:Drivers/STM32F4xx_HAL_Driver/Src/stm32f4xx_hal_dma_ex.c ****     hdma->ErrorCode = HAL_DMA_ERROR_PARAM;
 205              		.loc 1 190 0 is_stmt 1
 206 0020 4023     		movs	r3, #64
 207              	.LVL21:
 208 0022 6365     		str	r3, [r4, #84]
 191:Drivers/STM32F4xx_HAL_Driver/Src/stm32f4xx_hal_dma_ex.c ****     return HAL_ERROR;
 209              		.loc 1 191 0
 210 0024 0120     		movs	r0, #1
 211 0026 38BD     		pop	{r3, r4, r5, pc}
 212              	.LVL22:
 213              	.L14:
 195:Drivers/STM32F4xx_HAL_Driver/Src/stm32f4xx_hal_dma_ex.c ****   __HAL_LOCK(hdma);
 214              		.loc 1 195 0
 215 0028 94F83400 		ldrb	r0, [r4, #52]	@ zero_extendqisi2
 216 002c 0128     		cmp	r0, #1
 217 002e 00F02D87 		beq	.L284
 195:Drivers/STM32F4xx_HAL_Driver/Src/stm32f4xx_hal_dma_ex.c ****   __HAL_LOCK(hdma);
 218              		.loc 1 195 0 is_stmt 0 discriminator 2
 219 0032 0120     		movs	r0, #1
 220 0034 84F83400 		strb	r0, [r4, #52]
 197:Drivers/STM32F4xx_HAL_Driver/Src/stm32f4xx_hal_dma_ex.c ****   if(HAL_DMA_STATE_READY == hdma->State)
 221              		.loc 1 197 0 is_stmt 1 discriminator 2
 222 0038 94F83500 		ldrb	r0, [r4, #53]	@ zero_extendqisi2
 223 003c C0B2     		uxtb	r0, r0
 224 003e 0128     		cmp	r0, #1
 225 0040 40F01F87 		bne	.L15
 200:Drivers/STM32F4xx_HAL_Driver/Src/stm32f4xx_hal_dma_ex.c ****     hdma->State = HAL_DMA_STATE_BUSY;
 226              		.loc 1 200 0
 227 0044 0220     		movs	r0, #2
 228 0046 84F83500 		strb	r0, [r4, #53]
ARM GAS  /var/folders/m5/1z2v3_dd2cg5xnclvhns6x640000gn/T//ccsZslox.s 			page 11


 203:Drivers/STM32F4xx_HAL_Driver/Src/stm32f4xx_hal_dma_ex.c ****     hdma->ErrorCode = HAL_DMA_ERROR_NONE;
 229              		.loc 1 203 0
 230 004a 0020     		movs	r0, #0
 231 004c 6065     		str	r0, [r4, #84]
 206:Drivers/STM32F4xx_HAL_Driver/Src/stm32f4xx_hal_dma_ex.c ****     hdma->Instance->CR |= (uint32_t)DMA_SxCR_DBM;
 232              		.loc 1 206 0
 233 004e 2068     		ldr	r0, [r4]
 234 0050 0568     		ldr	r5, [r0]
 235 0052 45F48025 		orr	r5, r5, #262144
 236 0056 0560     		str	r5, [r0]
 209:Drivers/STM32F4xx_HAL_Driver/Src/stm32f4xx_hal_dma_ex.c ****     hdma->Instance->M1AR = SecondMemAddress;
 237              		.loc 1 209 0
 238 0058 2068     		ldr	r0, [r4]
 239 005a 0361     		str	r3, [r0, #16]
 212:Drivers/STM32F4xx_HAL_Driver/Src/stm32f4xx_hal_dma_ex.c ****     DMA_MultiBufferSetConfig(hdma, SrcAddress, DstAddress, DataLength); 
 240              		.loc 1 212 0
 241 005c 2046     		mov	r0, r4
 242 005e 049B     		ldr	r3, [sp, #16]
 243              	.LVL23:
 244 0060 FFF7FEFF 		bl	DMA_MultiBufferSetConfig
 245              	.LVL24:
 215:Drivers/STM32F4xx_HAL_Driver/Src/stm32f4xx_hal_dma_ex.c ****     __HAL_DMA_CLEAR_FLAG (hdma, __HAL_DMA_GET_TC_FLAG_INDEX(hdma));
 246              		.loc 1 215 0
 247 0064 2368     		ldr	r3, [r4]
 248 0066 AB4A     		ldr	r2, .L525
 249 0068 9342     		cmp	r3, r2
 250 006a 54D9     		bls	.L16
 215:Drivers/STM32F4xx_HAL_Driver/Src/stm32f4xx_hal_dma_ex.c ****     __HAL_DMA_CLEAR_FLAG (hdma, __HAL_DMA_GET_TC_FLAG_INDEX(hdma));
 251              		.loc 1 215 0 is_stmt 0 discriminator 1
 252 006c A2F58962 		sub	r2, r2, #1096
 253 0070 9342     		cmp	r3, r2
 254 0072 4CD0     		beq	.L285
 255 0074 02F58062 		add	r2, r2, #1024
 256 0078 9342     		cmp	r3, r2
 257 007a 46D0     		beq	.L286
 215:Drivers/STM32F4xx_HAL_Driver/Src/stm32f4xx_hal_dma_ex.c ****     __HAL_DMA_CLEAR_FLAG (hdma, __HAL_DMA_GET_TC_FLAG_INDEX(hdma));
 258              		.loc 1 215 0 discriminator 3
 259 007c A2F56872 		sub	r2, r2, #928
 260 0080 9342     		cmp	r3, r2
 261 0082 40D0     		beq	.L287
 215:Drivers/STM32F4xx_HAL_Driver/Src/stm32f4xx_hal_dma_ex.c ****     __HAL_DMA_CLEAR_FLAG (hdma, __HAL_DMA_GET_TC_FLAG_INDEX(hdma));
 262              		.loc 1 215 0 discriminator 5
 263 0084 02F58062 		add	r2, r2, #1024
 264 0088 9342     		cmp	r3, r2
 265 008a 3AD0     		beq	.L288
 215:Drivers/STM32F4xx_HAL_Driver/Src/stm32f4xx_hal_dma_ex.c ****     __HAL_DMA_CLEAR_FLAG (hdma, __HAL_DMA_GET_TC_FLAG_INDEX(hdma));
 266              		.loc 1 215 0 discriminator 7
 267 008c A2F58962 		sub	r2, r2, #1096
 268 0090 9342     		cmp	r3, r2
 269 0092 33D0     		beq	.L289
 215:Drivers/STM32F4xx_HAL_Driver/Src/stm32f4xx_hal_dma_ex.c ****     __HAL_DMA_CLEAR_FLAG (hdma, __HAL_DMA_GET_TC_FLAG_INDEX(hdma));
 270              		.loc 1 215 0 discriminator 9
 271 0094 02F58062 		add	r2, r2, #1024
 272 0098 9342     		cmp	r3, r2
 273 009a 2CD0     		beq	.L290
 215:Drivers/STM32F4xx_HAL_Driver/Src/stm32f4xx_hal_dma_ex.c ****     __HAL_DMA_CLEAR_FLAG (hdma, __HAL_DMA_GET_TC_FLAG_INDEX(hdma));
 274              		.loc 1 215 0 discriminator 11
ARM GAS  /var/folders/m5/1z2v3_dd2cg5xnclvhns6x640000gn/T//ccsZslox.s 			page 12


 275 009c A2F56872 		sub	r2, r2, #928
 276 00a0 9342     		cmp	r3, r2
 277 00a2 25D0     		beq	.L291
 215:Drivers/STM32F4xx_HAL_Driver/Src/stm32f4xx_hal_dma_ex.c ****     __HAL_DMA_CLEAR_FLAG (hdma, __HAL_DMA_GET_TC_FLAG_INDEX(hdma));
 278              		.loc 1 215 0 discriminator 13
 279 00a4 02F58062 		add	r2, r2, #1024
 280 00a8 9342     		cmp	r3, r2
 281 00aa 1ED0     		beq	.L292
 215:Drivers/STM32F4xx_HAL_Driver/Src/stm32f4xx_hal_dma_ex.c ****     __HAL_DMA_CLEAR_FLAG (hdma, __HAL_DMA_GET_TC_FLAG_INDEX(hdma));
 282              		.loc 1 215 0 discriminator 15
 283 00ac A2F58962 		sub	r2, r2, #1096
 284 00b0 9342     		cmp	r3, r2
 285 00b2 17D0     		beq	.L293
 215:Drivers/STM32F4xx_HAL_Driver/Src/stm32f4xx_hal_dma_ex.c ****     __HAL_DMA_CLEAR_FLAG (hdma, __HAL_DMA_GET_TC_FLAG_INDEX(hdma));
 286              		.loc 1 215 0 discriminator 17
 287 00b4 02F58062 		add	r2, r2, #1024
 288 00b8 9342     		cmp	r3, r2
 289 00ba 10D0     		beq	.L294
 215:Drivers/STM32F4xx_HAL_Driver/Src/stm32f4xx_hal_dma_ex.c ****     __HAL_DMA_CLEAR_FLAG (hdma, __HAL_DMA_GET_TC_FLAG_INDEX(hdma));
 290              		.loc 1 215 0 discriminator 19
 291 00bc A2F56872 		sub	r2, r2, #928
 292 00c0 9342     		cmp	r3, r2
 293 00c2 08D0     		beq	.L295
 215:Drivers/STM32F4xx_HAL_Driver/Src/stm32f4xx_hal_dma_ex.c ****     __HAL_DMA_CLEAR_FLAG (hdma, __HAL_DMA_GET_TC_FLAG_INDEX(hdma));
 294              		.loc 1 215 0 discriminator 21
 295 00c4 02F58062 		add	r2, r2, #1024
 296 00c8 9342     		cmp	r3, r2
 297 00ca 14BF     		ite	ne
 298 00cc 4FF00063 		movne	r3, #134217728
 299 00d0 4FF40013 		moveq	r3, #2097152
 300 00d4 01E0     		b	.L27
 301              	.L295:
 215:Drivers/STM32F4xx_HAL_Driver/Src/stm32f4xx_hal_dma_ex.c ****     __HAL_DMA_CLEAR_FLAG (hdma, __HAL_DMA_GET_TC_FLAG_INDEX(hdma));
 302              		.loc 1 215 0
 303 00d6 4FF40013 		mov	r3, #2097152
 304              	.L27:
 215:Drivers/STM32F4xx_HAL_Driver/Src/stm32f4xx_hal_dma_ex.c ****     __HAL_DMA_CLEAR_FLAG (hdma, __HAL_DMA_GET_TC_FLAG_INDEX(hdma));
 305              		.loc 1 215 0 discriminator 2
 306 00da 1A46     		mov	r2, r3
 307 00dc 18E0     		b	.L17
 308              	.L294:
 215:Drivers/STM32F4xx_HAL_Driver/Src/stm32f4xx_hal_dma_ex.c ****     __HAL_DMA_CLEAR_FLAG (hdma, __HAL_DMA_GET_TC_FLAG_INDEX(hdma));
 309              		.loc 1 215 0
 310 00de 4FF40012 		mov	r2, #2097152
 311 00e2 15E0     		b	.L17
 312              	.L293:
 313 00e4 4FF40012 		mov	r2, #2097152
 314 00e8 12E0     		b	.L17
 315              	.L292:
 316 00ea 4FF40062 		mov	r2, #2048
 317 00ee 0FE0     		b	.L17
 318              	.L291:
 319 00f0 4FF40062 		mov	r2, #2048
 320 00f4 0CE0     		b	.L17
 321              	.L290:
 322 00f6 4FF40062 		mov	r2, #2048
 323 00fa 09E0     		b	.L17
ARM GAS  /var/folders/m5/1z2v3_dd2cg5xnclvhns6x640000gn/T//ccsZslox.s 			page 13


 324              	.L289:
 325 00fc 4FF40062 		mov	r2, #2048
 326 0100 06E0     		b	.L17
 327              	.L288:
 328 0102 2022     		movs	r2, #32
 329 0104 04E0     		b	.L17
 330              	.L287:
 331 0106 2022     		movs	r2, #32
 332 0108 02E0     		b	.L17
 333              	.L286:
 334 010a 2022     		movs	r2, #32
 335 010c 00E0     		b	.L17
 336              	.L285:
 337 010e 2022     		movs	r2, #32
 338              	.L17:
 215:Drivers/STM32F4xx_HAL_Driver/Src/stm32f4xx_hal_dma_ex.c ****     __HAL_DMA_CLEAR_FLAG (hdma, __HAL_DMA_GET_TC_FLAG_INDEX(hdma));
 339              		.loc 1 215 0 discriminator 12
 340 0110 814B     		ldr	r3, .L525+4
 341 0112 DA60     		str	r2, [r3, #12]
 342 0114 0DE1     		b	.L29
 343              	.L16:
 215:Drivers/STM32F4xx_HAL_Driver/Src/stm32f4xx_hal_dma_ex.c ****     __HAL_DMA_CLEAR_FLAG (hdma, __HAL_DMA_GET_TC_FLAG_INDEX(hdma));
 344              		.loc 1 215 0 discriminator 2
 345 0116 814A     		ldr	r2, .L525+8
 346 0118 9342     		cmp	r3, r2
 347 011a 53D9     		bls	.L30
 215:Drivers/STM32F4xx_HAL_Driver/Src/stm32f4xx_hal_dma_ex.c ****     __HAL_DMA_CLEAR_FLAG (hdma, __HAL_DMA_GET_TC_FLAG_INDEX(hdma));
 348              		.loc 1 215 0 discriminator 1
 349 011c A83A     		subs	r2, r2, #168
 350 011e 9342     		cmp	r3, r2
 351 0120 4CD0     		beq	.L297
 352 0122 02F58062 		add	r2, r2, #1024
 353 0126 9342     		cmp	r3, r2
 354 0128 46D0     		beq	.L298
 215:Drivers/STM32F4xx_HAL_Driver/Src/stm32f4xx_hal_dma_ex.c ****     __HAL_DMA_CLEAR_FLAG (hdma, __HAL_DMA_GET_TC_FLAG_INDEX(hdma));
 355              		.loc 1 215 0 discriminator 3
 356 012a A2F56872 		sub	r2, r2, #928
 357 012e 9342     		cmp	r3, r2
 358 0130 40D0     		beq	.L299
 215:Drivers/STM32F4xx_HAL_Driver/Src/stm32f4xx_hal_dma_ex.c ****     __HAL_DMA_CLEAR_FLAG (hdma, __HAL_DMA_GET_TC_FLAG_INDEX(hdma));
 359              		.loc 1 215 0 discriminator 5
 360 0132 02F58062 		add	r2, r2, #1024
 361 0136 9342     		cmp	r3, r2
 362 0138 3AD0     		beq	.L300
 215:Drivers/STM32F4xx_HAL_Driver/Src/stm32f4xx_hal_dma_ex.c ****     __HAL_DMA_CLEAR_FLAG (hdma, __HAL_DMA_GET_TC_FLAG_INDEX(hdma));
 363              		.loc 1 215 0 discriminator 7
 364 013a A2F58962 		sub	r2, r2, #1096
 365 013e 9342     		cmp	r3, r2
 366 0140 33D0     		beq	.L301
 215:Drivers/STM32F4xx_HAL_Driver/Src/stm32f4xx_hal_dma_ex.c ****     __HAL_DMA_CLEAR_FLAG (hdma, __HAL_DMA_GET_TC_FLAG_INDEX(hdma));
 367              		.loc 1 215 0 discriminator 9
 368 0142 02F58062 		add	r2, r2, #1024
 369 0146 9342     		cmp	r3, r2
 370 0148 2CD0     		beq	.L302
 215:Drivers/STM32F4xx_HAL_Driver/Src/stm32f4xx_hal_dma_ex.c ****     __HAL_DMA_CLEAR_FLAG (hdma, __HAL_DMA_GET_TC_FLAG_INDEX(hdma));
 371              		.loc 1 215 0 discriminator 11
 372 014a A2F56872 		sub	r2, r2, #928
ARM GAS  /var/folders/m5/1z2v3_dd2cg5xnclvhns6x640000gn/T//ccsZslox.s 			page 14


 373 014e 9342     		cmp	r3, r2
 374 0150 25D0     		beq	.L303
 215:Drivers/STM32F4xx_HAL_Driver/Src/stm32f4xx_hal_dma_ex.c ****     __HAL_DMA_CLEAR_FLAG (hdma, __HAL_DMA_GET_TC_FLAG_INDEX(hdma));
 375              		.loc 1 215 0 discriminator 13
 376 0152 02F58062 		add	r2, r2, #1024
 377 0156 9342     		cmp	r3, r2
 378 0158 1ED0     		beq	.L304
 215:Drivers/STM32F4xx_HAL_Driver/Src/stm32f4xx_hal_dma_ex.c ****     __HAL_DMA_CLEAR_FLAG (hdma, __HAL_DMA_GET_TC_FLAG_INDEX(hdma));
 379              		.loc 1 215 0 discriminator 15
 380 015a A2F58962 		sub	r2, r2, #1096
 381 015e 9342     		cmp	r3, r2
 382 0160 17D0     		beq	.L305
 215:Drivers/STM32F4xx_HAL_Driver/Src/stm32f4xx_hal_dma_ex.c ****     __HAL_DMA_CLEAR_FLAG (hdma, __HAL_DMA_GET_TC_FLAG_INDEX(hdma));
 383              		.loc 1 215 0 discriminator 17
 384 0162 02F58062 		add	r2, r2, #1024
 385 0166 9342     		cmp	r3, r2
 386 0168 10D0     		beq	.L306
 215:Drivers/STM32F4xx_HAL_Driver/Src/stm32f4xx_hal_dma_ex.c ****     __HAL_DMA_CLEAR_FLAG (hdma, __HAL_DMA_GET_TC_FLAG_INDEX(hdma));
 387              		.loc 1 215 0 discriminator 19
 388 016a A2F56872 		sub	r2, r2, #928
 389 016e 9342     		cmp	r3, r2
 390 0170 08D0     		beq	.L307
 215:Drivers/STM32F4xx_HAL_Driver/Src/stm32f4xx_hal_dma_ex.c ****     __HAL_DMA_CLEAR_FLAG (hdma, __HAL_DMA_GET_TC_FLAG_INDEX(hdma));
 391              		.loc 1 215 0 discriminator 21
 392 0172 02F58062 		add	r2, r2, #1024
 393 0176 9342     		cmp	r3, r2
 394 0178 14BF     		ite	ne
 395 017a 4FF00063 		movne	r3, #134217728
 396 017e 4FF40013 		moveq	r3, #2097152
 397 0182 01E0     		b	.L41
 398              	.L307:
 215:Drivers/STM32F4xx_HAL_Driver/Src/stm32f4xx_hal_dma_ex.c ****     __HAL_DMA_CLEAR_FLAG (hdma, __HAL_DMA_GET_TC_FLAG_INDEX(hdma));
 399              		.loc 1 215 0
 400 0184 4FF40013 		mov	r3, #2097152
 401              	.L41:
 215:Drivers/STM32F4xx_HAL_Driver/Src/stm32f4xx_hal_dma_ex.c ****     __HAL_DMA_CLEAR_FLAG (hdma, __HAL_DMA_GET_TC_FLAG_INDEX(hdma));
 402              		.loc 1 215 0 discriminator 14
 403 0188 1A46     		mov	r2, r3
 404 018a 18E0     		b	.L31
 405              	.L306:
 215:Drivers/STM32F4xx_HAL_Driver/Src/stm32f4xx_hal_dma_ex.c ****     __HAL_DMA_CLEAR_FLAG (hdma, __HAL_DMA_GET_TC_FLAG_INDEX(hdma));
 406              		.loc 1 215 0
 407 018c 4FF40012 		mov	r2, #2097152
 408 0190 15E0     		b	.L31
 409              	.L305:
 410 0192 4FF40012 		mov	r2, #2097152
 411 0196 12E0     		b	.L31
 412              	.L304:
 413 0198 4FF40062 		mov	r2, #2048
 414 019c 0FE0     		b	.L31
 415              	.L303:
 416 019e 4FF40062 		mov	r2, #2048
 417 01a2 0CE0     		b	.L31
 418              	.L302:
 419 01a4 4FF40062 		mov	r2, #2048
 420 01a8 09E0     		b	.L31
 421              	.L301:
ARM GAS  /var/folders/m5/1z2v3_dd2cg5xnclvhns6x640000gn/T//ccsZslox.s 			page 15


 422 01aa 4FF40062 		mov	r2, #2048
 423 01ae 06E0     		b	.L31
 424              	.L300:
 425 01b0 2022     		movs	r2, #32
 426 01b2 04E0     		b	.L31
 427              	.L299:
 428 01b4 2022     		movs	r2, #32
 429 01b6 02E0     		b	.L31
 430              	.L298:
 431 01b8 2022     		movs	r2, #32
 432 01ba 00E0     		b	.L31
 433              	.L297:
 434 01bc 2022     		movs	r2, #32
 435              	.L31:
 215:Drivers/STM32F4xx_HAL_Driver/Src/stm32f4xx_hal_dma_ex.c ****     __HAL_DMA_CLEAR_FLAG (hdma, __HAL_DMA_GET_TC_FLAG_INDEX(hdma));
 436              		.loc 1 215 0 discriminator 24
 437 01be 564B     		ldr	r3, .L525+4
 438 01c0 9A60     		str	r2, [r3, #8]
 439 01c2 B6E0     		b	.L29
 440              	.L30:
 215:Drivers/STM32F4xx_HAL_Driver/Src/stm32f4xx_hal_dma_ex.c ****     __HAL_DMA_CLEAR_FLAG (hdma, __HAL_DMA_GET_TC_FLAG_INDEX(hdma));
 441              		.loc 1 215 0 discriminator 2
 442 01c4 564A     		ldr	r2, .L525+12
 443 01c6 9342     		cmp	r3, r2
 444 01c8 53D9     		bls	.L43
 215:Drivers/STM32F4xx_HAL_Driver/Src/stm32f4xx_hal_dma_ex.c ****     __HAL_DMA_CLEAR_FLAG (hdma, __HAL_DMA_GET_TC_FLAG_INDEX(hdma));
 445              		.loc 1 215 0 discriminator 1
 446 01ca 483A     		subs	r2, r2, #72
 447 01cc 9342     		cmp	r3, r2
 448 01ce 4CD0     		beq	.L309
 449 01d0 02F58062 		add	r2, r2, #1024
 450 01d4 9342     		cmp	r3, r2
 451 01d6 46D0     		beq	.L310
 215:Drivers/STM32F4xx_HAL_Driver/Src/stm32f4xx_hal_dma_ex.c ****     __HAL_DMA_CLEAR_FLAG (hdma, __HAL_DMA_GET_TC_FLAG_INDEX(hdma));
 452              		.loc 1 215 0 discriminator 3
 453 01d8 A2F56872 		sub	r2, r2, #928
 454 01dc 9342     		cmp	r3, r2
 455 01de 40D0     		beq	.L311
 215:Drivers/STM32F4xx_HAL_Driver/Src/stm32f4xx_hal_dma_ex.c ****     __HAL_DMA_CLEAR_FLAG (hdma, __HAL_DMA_GET_TC_FLAG_INDEX(hdma));
 456              		.loc 1 215 0 discriminator 5
 457 01e0 02F58062 		add	r2, r2, #1024
 458 01e4 9342     		cmp	r3, r2
 459 01e6 3AD0     		beq	.L312
 215:Drivers/STM32F4xx_HAL_Driver/Src/stm32f4xx_hal_dma_ex.c ****     __HAL_DMA_CLEAR_FLAG (hdma, __HAL_DMA_GET_TC_FLAG_INDEX(hdma));
 460              		.loc 1 215 0 discriminator 7
 461 01e8 A2F58962 		sub	r2, r2, #1096
 462 01ec 9342     		cmp	r3, r2
 463 01ee 33D0     		beq	.L313
 215:Drivers/STM32F4xx_HAL_Driver/Src/stm32f4xx_hal_dma_ex.c ****     __HAL_DMA_CLEAR_FLAG (hdma, __HAL_DMA_GET_TC_FLAG_INDEX(hdma));
 464              		.loc 1 215 0 discriminator 9
 465 01f0 02F58062 		add	r2, r2, #1024
 466 01f4 9342     		cmp	r3, r2
 467 01f6 2CD0     		beq	.L314
 215:Drivers/STM32F4xx_HAL_Driver/Src/stm32f4xx_hal_dma_ex.c ****     __HAL_DMA_CLEAR_FLAG (hdma, __HAL_DMA_GET_TC_FLAG_INDEX(hdma));
 468              		.loc 1 215 0 discriminator 11
 469 01f8 A2F56872 		sub	r2, r2, #928
 470 01fc 9342     		cmp	r3, r2
ARM GAS  /var/folders/m5/1z2v3_dd2cg5xnclvhns6x640000gn/T//ccsZslox.s 			page 16


 471 01fe 25D0     		beq	.L315
 215:Drivers/STM32F4xx_HAL_Driver/Src/stm32f4xx_hal_dma_ex.c ****     __HAL_DMA_CLEAR_FLAG (hdma, __HAL_DMA_GET_TC_FLAG_INDEX(hdma));
 472              		.loc 1 215 0 discriminator 13
 473 0200 02F58062 		add	r2, r2, #1024
 474 0204 9342     		cmp	r3, r2
 475 0206 1ED0     		beq	.L316
 215:Drivers/STM32F4xx_HAL_Driver/Src/stm32f4xx_hal_dma_ex.c ****     __HAL_DMA_CLEAR_FLAG (hdma, __HAL_DMA_GET_TC_FLAG_INDEX(hdma));
 476              		.loc 1 215 0 discriminator 15
 477 0208 A2F58962 		sub	r2, r2, #1096
 478 020c 9342     		cmp	r3, r2
 479 020e 17D0     		beq	.L317
 215:Drivers/STM32F4xx_HAL_Driver/Src/stm32f4xx_hal_dma_ex.c ****     __HAL_DMA_CLEAR_FLAG (hdma, __HAL_DMA_GET_TC_FLAG_INDEX(hdma));
 480              		.loc 1 215 0 discriminator 17
 481 0210 02F58062 		add	r2, r2, #1024
 482 0214 9342     		cmp	r3, r2
 483 0216 10D0     		beq	.L318
 215:Drivers/STM32F4xx_HAL_Driver/Src/stm32f4xx_hal_dma_ex.c ****     __HAL_DMA_CLEAR_FLAG (hdma, __HAL_DMA_GET_TC_FLAG_INDEX(hdma));
 484              		.loc 1 215 0 discriminator 19
 485 0218 A2F56872 		sub	r2, r2, #928
 486 021c 9342     		cmp	r3, r2
 487 021e 08D0     		beq	.L319
 215:Drivers/STM32F4xx_HAL_Driver/Src/stm32f4xx_hal_dma_ex.c ****     __HAL_DMA_CLEAR_FLAG (hdma, __HAL_DMA_GET_TC_FLAG_INDEX(hdma));
 488              		.loc 1 215 0 discriminator 21
 489 0220 02F58062 		add	r2, r2, #1024
 490 0224 9342     		cmp	r3, r2
 491 0226 14BF     		ite	ne
 492 0228 4FF00063 		movne	r3, #134217728
 493 022c 4FF40013 		moveq	r3, #2097152
 494 0230 01E0     		b	.L54
 495              	.L319:
 215:Drivers/STM32F4xx_HAL_Driver/Src/stm32f4xx_hal_dma_ex.c ****     __HAL_DMA_CLEAR_FLAG (hdma, __HAL_DMA_GET_TC_FLAG_INDEX(hdma));
 496              		.loc 1 215 0
 497 0232 4FF40013 		mov	r3, #2097152
 498              	.L54:
 215:Drivers/STM32F4xx_HAL_Driver/Src/stm32f4xx_hal_dma_ex.c ****     __HAL_DMA_CLEAR_FLAG (hdma, __HAL_DMA_GET_TC_FLAG_INDEX(hdma));
 499              		.loc 1 215 0 discriminator 26
 500 0236 1A46     		mov	r2, r3
 501 0238 18E0     		b	.L44
 502              	.L318:
 215:Drivers/STM32F4xx_HAL_Driver/Src/stm32f4xx_hal_dma_ex.c ****     __HAL_DMA_CLEAR_FLAG (hdma, __HAL_DMA_GET_TC_FLAG_INDEX(hdma));
 503              		.loc 1 215 0
 504 023a 4FF40012 		mov	r2, #2097152
 505 023e 15E0     		b	.L44
 506              	.L317:
 507 0240 4FF40012 		mov	r2, #2097152
 508 0244 12E0     		b	.L44
 509              	.L316:
 510 0246 4FF40062 		mov	r2, #2048
 511 024a 0FE0     		b	.L44
 512              	.L315:
 513 024c 4FF40062 		mov	r2, #2048
 514 0250 0CE0     		b	.L44
 515              	.L314:
 516 0252 4FF40062 		mov	r2, #2048
 517 0256 09E0     		b	.L44
 518              	.L313:
 519 0258 4FF40062 		mov	r2, #2048
ARM GAS  /var/folders/m5/1z2v3_dd2cg5xnclvhns6x640000gn/T//ccsZslox.s 			page 17


 520 025c 06E0     		b	.L44
 521              	.L312:
 522 025e 2022     		movs	r2, #32
 523 0260 04E0     		b	.L44
 524              	.L311:
 525 0262 2022     		movs	r2, #32
 526 0264 02E0     		b	.L44
 527              	.L310:
 528 0266 2022     		movs	r2, #32
 529 0268 00E0     		b	.L44
 530              	.L309:
 531 026a 2022     		movs	r2, #32
 532              	.L44:
 215:Drivers/STM32F4xx_HAL_Driver/Src/stm32f4xx_hal_dma_ex.c ****     __HAL_DMA_CLEAR_FLAG (hdma, __HAL_DMA_GET_TC_FLAG_INDEX(hdma));
 533              		.loc 1 215 0 discriminator 36
 534 026c 2D4B     		ldr	r3, .L525+16
 535 026e DA60     		str	r2, [r3, #12]
 536 0270 5FE0     		b	.L29
 537              	.L43:
 215:Drivers/STM32F4xx_HAL_Driver/Src/stm32f4xx_hal_dma_ex.c ****     __HAL_DMA_CLEAR_FLAG (hdma, __HAL_DMA_GET_TC_FLAG_INDEX(hdma));
 538              		.loc 1 215 0 discriminator 2
 539 0272 2D4A     		ldr	r2, .L525+20
 540 0274 9342     		cmp	r3, r2
 541 0276 59D0     		beq	.L321
 215:Drivers/STM32F4xx_HAL_Driver/Src/stm32f4xx_hal_dma_ex.c ****     __HAL_DMA_CLEAR_FLAG (hdma, __HAL_DMA_GET_TC_FLAG_INDEX(hdma));
 542              		.loc 1 215 0 discriminator 1
 543 0278 02F58062 		add	r2, r2, #1024
 544 027c 9342     		cmp	r3, r2
 545 027e 46D0     		beq	.L322
 215:Drivers/STM32F4xx_HAL_Driver/Src/stm32f4xx_hal_dma_ex.c ****     __HAL_DMA_CLEAR_FLAG (hdma, __HAL_DMA_GET_TC_FLAG_INDEX(hdma));
 546              		.loc 1 215 0 discriminator 3
 547 0280 A2F56872 		sub	r2, r2, #928
 548 0284 9342     		cmp	r3, r2
 549 0286 40D0     		beq	.L323
 215:Drivers/STM32F4xx_HAL_Driver/Src/stm32f4xx_hal_dma_ex.c ****     __HAL_DMA_CLEAR_FLAG (hdma, __HAL_DMA_GET_TC_FLAG_INDEX(hdma));
 550              		.loc 1 215 0 discriminator 5
 551 0288 02F58062 		add	r2, r2, #1024
 552 028c 9342     		cmp	r3, r2
 553 028e 3AD0     		beq	.L324
 215:Drivers/STM32F4xx_HAL_Driver/Src/stm32f4xx_hal_dma_ex.c ****     __HAL_DMA_CLEAR_FLAG (hdma, __HAL_DMA_GET_TC_FLAG_INDEX(hdma));
 554              		.loc 1 215 0 discriminator 7
 555 0290 A2F58962 		sub	r2, r2, #1096
 556 0294 9342     		cmp	r3, r2
 557 0296 33D0     		beq	.L325
 215:Drivers/STM32F4xx_HAL_Driver/Src/stm32f4xx_hal_dma_ex.c ****     __HAL_DMA_CLEAR_FLAG (hdma, __HAL_DMA_GET_TC_FLAG_INDEX(hdma));
 558              		.loc 1 215 0 discriminator 9
 559 0298 02F58062 		add	r2, r2, #1024
 560 029c 9342     		cmp	r3, r2
 561 029e 2CD0     		beq	.L326
 215:Drivers/STM32F4xx_HAL_Driver/Src/stm32f4xx_hal_dma_ex.c ****     __HAL_DMA_CLEAR_FLAG (hdma, __HAL_DMA_GET_TC_FLAG_INDEX(hdma));
 562              		.loc 1 215 0 discriminator 11
 563 02a0 A2F56872 		sub	r2, r2, #928
 564 02a4 9342     		cmp	r3, r2
 565 02a6 25D0     		beq	.L327
 215:Drivers/STM32F4xx_HAL_Driver/Src/stm32f4xx_hal_dma_ex.c ****     __HAL_DMA_CLEAR_FLAG (hdma, __HAL_DMA_GET_TC_FLAG_INDEX(hdma));
 566              		.loc 1 215 0 discriminator 13
 567 02a8 02F58062 		add	r2, r2, #1024
ARM GAS  /var/folders/m5/1z2v3_dd2cg5xnclvhns6x640000gn/T//ccsZslox.s 			page 18


 568 02ac 9342     		cmp	r3, r2
 569 02ae 1ED0     		beq	.L328
 215:Drivers/STM32F4xx_HAL_Driver/Src/stm32f4xx_hal_dma_ex.c ****     __HAL_DMA_CLEAR_FLAG (hdma, __HAL_DMA_GET_TC_FLAG_INDEX(hdma));
 570              		.loc 1 215 0 discriminator 15
 571 02b0 A2F58962 		sub	r2, r2, #1096
 572 02b4 9342     		cmp	r3, r2
 573 02b6 17D0     		beq	.L329
 215:Drivers/STM32F4xx_HAL_Driver/Src/stm32f4xx_hal_dma_ex.c ****     __HAL_DMA_CLEAR_FLAG (hdma, __HAL_DMA_GET_TC_FLAG_INDEX(hdma));
 574              		.loc 1 215 0 discriminator 17
 575 02b8 02F58062 		add	r2, r2, #1024
 576 02bc 9342     		cmp	r3, r2
 577 02be 10D0     		beq	.L330
 215:Drivers/STM32F4xx_HAL_Driver/Src/stm32f4xx_hal_dma_ex.c ****     __HAL_DMA_CLEAR_FLAG (hdma, __HAL_DMA_GET_TC_FLAG_INDEX(hdma));
 578              		.loc 1 215 0 discriminator 19
 579 02c0 A2F56872 		sub	r2, r2, #928
 580 02c4 9342     		cmp	r3, r2
 581 02c6 08D0     		beq	.L331
 215:Drivers/STM32F4xx_HAL_Driver/Src/stm32f4xx_hal_dma_ex.c ****     __HAL_DMA_CLEAR_FLAG (hdma, __HAL_DMA_GET_TC_FLAG_INDEX(hdma));
 582              		.loc 1 215 0 discriminator 21
 583 02c8 02F58062 		add	r2, r2, #1024
 584 02cc 9342     		cmp	r3, r2
 585 02ce 14BF     		ite	ne
 586 02d0 4FF00063 		movne	r3, #134217728
 587 02d4 4FF40013 		moveq	r3, #2097152
 588 02d8 01E0     		b	.L67
 589              	.L331:
 215:Drivers/STM32F4xx_HAL_Driver/Src/stm32f4xx_hal_dma_ex.c ****     __HAL_DMA_CLEAR_FLAG (hdma, __HAL_DMA_GET_TC_FLAG_INDEX(hdma));
 590              		.loc 1 215 0
 591 02da 4FF40013 		mov	r3, #2097152
 592              	.L67:
 215:Drivers/STM32F4xx_HAL_Driver/Src/stm32f4xx_hal_dma_ex.c ****     __HAL_DMA_CLEAR_FLAG (hdma, __HAL_DMA_GET_TC_FLAG_INDEX(hdma));
 593              		.loc 1 215 0 discriminator 38
 594 02de 1A46     		mov	r2, r3
 595 02e0 25E0     		b	.L57
 596              	.L330:
 215:Drivers/STM32F4xx_HAL_Driver/Src/stm32f4xx_hal_dma_ex.c ****     __HAL_DMA_CLEAR_FLAG (hdma, __HAL_DMA_GET_TC_FLAG_INDEX(hdma));
 597              		.loc 1 215 0
 598 02e2 4FF40012 		mov	r2, #2097152
 599 02e6 22E0     		b	.L57
 600              	.L329:
 601 02e8 4FF40012 		mov	r2, #2097152
 602 02ec 1FE0     		b	.L57
 603              	.L328:
 604 02ee 4FF40062 		mov	r2, #2048
 605 02f2 1CE0     		b	.L57
 606              	.L327:
 607 02f4 4FF40062 		mov	r2, #2048
 608 02f8 19E0     		b	.L57
 609              	.L326:
 610 02fa 4FF40062 		mov	r2, #2048
 611 02fe 16E0     		b	.L57
 612              	.L325:
 613 0300 4FF40062 		mov	r2, #2048
 614 0304 13E0     		b	.L57
 615              	.L324:
 616 0306 2022     		movs	r2, #32
 617 0308 11E0     		b	.L57
ARM GAS  /var/folders/m5/1z2v3_dd2cg5xnclvhns6x640000gn/T//ccsZslox.s 			page 19


 618              	.L323:
 619 030a 2022     		movs	r2, #32
 620 030c 0FE0     		b	.L57
 621              	.L322:
 622 030e 2022     		movs	r2, #32
 623 0310 0DE0     		b	.L57
 624              	.L526:
 625 0312 00BF     		.align	2
 626              	.L525:
 627 0314 58640240 		.word	1073898584
 628 0318 00640240 		.word	1073898496
 629 031c B8600240 		.word	1073897656
 630 0320 58600240 		.word	1073897560
 631 0324 00600240 		.word	1073897472
 632 0328 10600240 		.word	1073897488
 633              	.L321:
 634 032c 2022     		movs	r2, #32
 635              	.L57:
 215:Drivers/STM32F4xx_HAL_Driver/Src/stm32f4xx_hal_dma_ex.c ****     __HAL_DMA_CLEAR_FLAG (hdma, __HAL_DMA_GET_TC_FLAG_INDEX(hdma));
 636              		.loc 1 215 0 discriminator 25
 637 032e AC4B     		ldr	r3, .L527
 638 0330 9A60     		str	r2, [r3, #8]
 639              	.L29:
 216:Drivers/STM32F4xx_HAL_Driver/Src/stm32f4xx_hal_dma_ex.c ****     __HAL_DMA_CLEAR_FLAG (hdma, __HAL_DMA_GET_HT_FLAG_INDEX(hdma));
 640              		.loc 1 216 0 is_stmt 1
 641 0332 2368     		ldr	r3, [r4]
 642 0334 AB4A     		ldr	r2, .L527+4
 643 0336 9342     		cmp	r3, r2
 644 0338 54D9     		bls	.L69
 216:Drivers/STM32F4xx_HAL_Driver/Src/stm32f4xx_hal_dma_ex.c ****     __HAL_DMA_CLEAR_FLAG (hdma, __HAL_DMA_GET_HT_FLAG_INDEX(hdma));
 645              		.loc 1 216 0 is_stmt 0 discriminator 1
 646 033a A2F58962 		sub	r2, r2, #1096
 647 033e 9342     		cmp	r3, r2
 648 0340 4CD0     		beq	.L333
 649 0342 02F58062 		add	r2, r2, #1024
 650 0346 9342     		cmp	r3, r2
 651 0348 46D0     		beq	.L334
 216:Drivers/STM32F4xx_HAL_Driver/Src/stm32f4xx_hal_dma_ex.c ****     __HAL_DMA_CLEAR_FLAG (hdma, __HAL_DMA_GET_HT_FLAG_INDEX(hdma));
 652              		.loc 1 216 0 discriminator 3
 653 034a A2F56872 		sub	r2, r2, #928
 654 034e 9342     		cmp	r3, r2
 655 0350 40D0     		beq	.L335
 216:Drivers/STM32F4xx_HAL_Driver/Src/stm32f4xx_hal_dma_ex.c ****     __HAL_DMA_CLEAR_FLAG (hdma, __HAL_DMA_GET_HT_FLAG_INDEX(hdma));
 656              		.loc 1 216 0 discriminator 5
 657 0352 02F58062 		add	r2, r2, #1024
 658 0356 9342     		cmp	r3, r2
 659 0358 3AD0     		beq	.L336
 216:Drivers/STM32F4xx_HAL_Driver/Src/stm32f4xx_hal_dma_ex.c ****     __HAL_DMA_CLEAR_FLAG (hdma, __HAL_DMA_GET_HT_FLAG_INDEX(hdma));
 660              		.loc 1 216 0 discriminator 7
 661 035a A2F58962 		sub	r2, r2, #1096
 662 035e 9342     		cmp	r3, r2
 663 0360 33D0     		beq	.L337
 216:Drivers/STM32F4xx_HAL_Driver/Src/stm32f4xx_hal_dma_ex.c ****     __HAL_DMA_CLEAR_FLAG (hdma, __HAL_DMA_GET_HT_FLAG_INDEX(hdma));
 664              		.loc 1 216 0 discriminator 9
 665 0362 02F58062 		add	r2, r2, #1024
 666 0366 9342     		cmp	r3, r2
 667 0368 2CD0     		beq	.L338
ARM GAS  /var/folders/m5/1z2v3_dd2cg5xnclvhns6x640000gn/T//ccsZslox.s 			page 20


 216:Drivers/STM32F4xx_HAL_Driver/Src/stm32f4xx_hal_dma_ex.c ****     __HAL_DMA_CLEAR_FLAG (hdma, __HAL_DMA_GET_HT_FLAG_INDEX(hdma));
 668              		.loc 1 216 0 discriminator 11
 669 036a A2F56872 		sub	r2, r2, #928
 670 036e 9342     		cmp	r3, r2
 671 0370 25D0     		beq	.L339
 216:Drivers/STM32F4xx_HAL_Driver/Src/stm32f4xx_hal_dma_ex.c ****     __HAL_DMA_CLEAR_FLAG (hdma, __HAL_DMA_GET_HT_FLAG_INDEX(hdma));
 672              		.loc 1 216 0 discriminator 13
 673 0372 02F58062 		add	r2, r2, #1024
 674 0376 9342     		cmp	r3, r2
 675 0378 1ED0     		beq	.L340
 216:Drivers/STM32F4xx_HAL_Driver/Src/stm32f4xx_hal_dma_ex.c ****     __HAL_DMA_CLEAR_FLAG (hdma, __HAL_DMA_GET_HT_FLAG_INDEX(hdma));
 676              		.loc 1 216 0 discriminator 15
 677 037a A2F58962 		sub	r2, r2, #1096
 678 037e 9342     		cmp	r3, r2
 679 0380 17D0     		beq	.L341
 216:Drivers/STM32F4xx_HAL_Driver/Src/stm32f4xx_hal_dma_ex.c ****     __HAL_DMA_CLEAR_FLAG (hdma, __HAL_DMA_GET_HT_FLAG_INDEX(hdma));
 680              		.loc 1 216 0 discriminator 17
 681 0382 02F58062 		add	r2, r2, #1024
 682 0386 9342     		cmp	r3, r2
 683 0388 10D0     		beq	.L342
 216:Drivers/STM32F4xx_HAL_Driver/Src/stm32f4xx_hal_dma_ex.c ****     __HAL_DMA_CLEAR_FLAG (hdma, __HAL_DMA_GET_HT_FLAG_INDEX(hdma));
 684              		.loc 1 216 0 discriminator 19
 685 038a A2F56872 		sub	r2, r2, #928
 686 038e 9342     		cmp	r3, r2
 687 0390 08D0     		beq	.L343
 216:Drivers/STM32F4xx_HAL_Driver/Src/stm32f4xx_hal_dma_ex.c ****     __HAL_DMA_CLEAR_FLAG (hdma, __HAL_DMA_GET_HT_FLAG_INDEX(hdma));
 688              		.loc 1 216 0 discriminator 21
 689 0392 02F58062 		add	r2, r2, #1024
 690 0396 9342     		cmp	r3, r2
 691 0398 14BF     		ite	ne
 692 039a 4FF08063 		movne	r3, #67108864
 693 039e 4FF48013 		moveq	r3, #1048576
 694 03a2 01E0     		b	.L80
 695              	.L343:
 216:Drivers/STM32F4xx_HAL_Driver/Src/stm32f4xx_hal_dma_ex.c ****     __HAL_DMA_CLEAR_FLAG (hdma, __HAL_DMA_GET_HT_FLAG_INDEX(hdma));
 696              		.loc 1 216 0
 697 03a4 4FF48013 		mov	r3, #1048576
 698              	.L80:
 216:Drivers/STM32F4xx_HAL_Driver/Src/stm32f4xx_hal_dma_ex.c ****     __HAL_DMA_CLEAR_FLAG (hdma, __HAL_DMA_GET_HT_FLAG_INDEX(hdma));
 699              		.loc 1 216 0 discriminator 49
 700 03a8 1A46     		mov	r2, r3
 701 03aa 18E0     		b	.L70
 702              	.L342:
 216:Drivers/STM32F4xx_HAL_Driver/Src/stm32f4xx_hal_dma_ex.c ****     __HAL_DMA_CLEAR_FLAG (hdma, __HAL_DMA_GET_HT_FLAG_INDEX(hdma));
 703              		.loc 1 216 0
 704 03ac 4FF48012 		mov	r2, #1048576
 705 03b0 15E0     		b	.L70
 706              	.L341:
 707 03b2 4FF48012 		mov	r2, #1048576
 708 03b6 12E0     		b	.L70
 709              	.L340:
 710 03b8 4FF48062 		mov	r2, #1024
 711 03bc 0FE0     		b	.L70
 712              	.L339:
 713 03be 4FF48062 		mov	r2, #1024
 714 03c2 0CE0     		b	.L70
 715              	.L338:
ARM GAS  /var/folders/m5/1z2v3_dd2cg5xnclvhns6x640000gn/T//ccsZslox.s 			page 21


 716 03c4 4FF48062 		mov	r2, #1024
 717 03c8 09E0     		b	.L70
 718              	.L337:
 719 03ca 4FF48062 		mov	r2, #1024
 720 03ce 06E0     		b	.L70
 721              	.L336:
 722 03d0 1022     		movs	r2, #16
 723 03d2 04E0     		b	.L70
 724              	.L335:
 725 03d4 1022     		movs	r2, #16
 726 03d6 02E0     		b	.L70
 727              	.L334:
 728 03d8 1022     		movs	r2, #16
 729 03da 00E0     		b	.L70
 730              	.L333:
 731 03dc 1022     		movs	r2, #16
 732              	.L70:
 216:Drivers/STM32F4xx_HAL_Driver/Src/stm32f4xx_hal_dma_ex.c ****     __HAL_DMA_CLEAR_FLAG (hdma, __HAL_DMA_GET_HT_FLAG_INDEX(hdma));
 733              		.loc 1 216 0 discriminator 59
 734 03de 824B     		ldr	r3, .L527+8
 735 03e0 DA60     		str	r2, [r3, #12]
 736 03e2 0CE1     		b	.L82
 737              	.L69:
 216:Drivers/STM32F4xx_HAL_Driver/Src/stm32f4xx_hal_dma_ex.c ****     __HAL_DMA_CLEAR_FLAG (hdma, __HAL_DMA_GET_HT_FLAG_INDEX(hdma));
 738              		.loc 1 216 0 discriminator 2
 739 03e4 814A     		ldr	r2, .L527+12
 740 03e6 9342     		cmp	r3, r2
 741 03e8 53D9     		bls	.L83
 216:Drivers/STM32F4xx_HAL_Driver/Src/stm32f4xx_hal_dma_ex.c ****     __HAL_DMA_CLEAR_FLAG (hdma, __HAL_DMA_GET_HT_FLAG_INDEX(hdma));
 742              		.loc 1 216 0 discriminator 1
 743 03ea A83A     		subs	r2, r2, #168
 744 03ec 9342     		cmp	r3, r2
 745 03ee 4CD0     		beq	.L345
 746 03f0 02F58062 		add	r2, r2, #1024
 747 03f4 9342     		cmp	r3, r2
 748 03f6 46D0     		beq	.L346
 216:Drivers/STM32F4xx_HAL_Driver/Src/stm32f4xx_hal_dma_ex.c ****     __HAL_DMA_CLEAR_FLAG (hdma, __HAL_DMA_GET_HT_FLAG_INDEX(hdma));
 749              		.loc 1 216 0 discriminator 3
 750 03f8 A2F56872 		sub	r2, r2, #928
 751 03fc 9342     		cmp	r3, r2
 752 03fe 40D0     		beq	.L347
 216:Drivers/STM32F4xx_HAL_Driver/Src/stm32f4xx_hal_dma_ex.c ****     __HAL_DMA_CLEAR_FLAG (hdma, __HAL_DMA_GET_HT_FLAG_INDEX(hdma));
 753              		.loc 1 216 0 discriminator 5
 754 0400 02F58062 		add	r2, r2, #1024
 755 0404 9342     		cmp	r3, r2
 756 0406 3AD0     		beq	.L348
 216:Drivers/STM32F4xx_HAL_Driver/Src/stm32f4xx_hal_dma_ex.c ****     __HAL_DMA_CLEAR_FLAG (hdma, __HAL_DMA_GET_HT_FLAG_INDEX(hdma));
 757              		.loc 1 216 0 discriminator 7
 758 0408 A2F58962 		sub	r2, r2, #1096
 759 040c 9342     		cmp	r3, r2
 760 040e 33D0     		beq	.L349
 216:Drivers/STM32F4xx_HAL_Driver/Src/stm32f4xx_hal_dma_ex.c ****     __HAL_DMA_CLEAR_FLAG (hdma, __HAL_DMA_GET_HT_FLAG_INDEX(hdma));
 761              		.loc 1 216 0 discriminator 9
 762 0410 02F58062 		add	r2, r2, #1024
 763 0414 9342     		cmp	r3, r2
 764 0416 2CD0     		beq	.L350
 216:Drivers/STM32F4xx_HAL_Driver/Src/stm32f4xx_hal_dma_ex.c ****     __HAL_DMA_CLEAR_FLAG (hdma, __HAL_DMA_GET_HT_FLAG_INDEX(hdma));
ARM GAS  /var/folders/m5/1z2v3_dd2cg5xnclvhns6x640000gn/T//ccsZslox.s 			page 22


 765              		.loc 1 216 0 discriminator 11
 766 0418 A2F56872 		sub	r2, r2, #928
 767 041c 9342     		cmp	r3, r2
 768 041e 25D0     		beq	.L351
 216:Drivers/STM32F4xx_HAL_Driver/Src/stm32f4xx_hal_dma_ex.c ****     __HAL_DMA_CLEAR_FLAG (hdma, __HAL_DMA_GET_HT_FLAG_INDEX(hdma));
 769              		.loc 1 216 0 discriminator 13
 770 0420 02F58062 		add	r2, r2, #1024
 771 0424 9342     		cmp	r3, r2
 772 0426 1ED0     		beq	.L352
 216:Drivers/STM32F4xx_HAL_Driver/Src/stm32f4xx_hal_dma_ex.c ****     __HAL_DMA_CLEAR_FLAG (hdma, __HAL_DMA_GET_HT_FLAG_INDEX(hdma));
 773              		.loc 1 216 0 discriminator 15
 774 0428 A2F58962 		sub	r2, r2, #1096
 775 042c 9342     		cmp	r3, r2
 776 042e 17D0     		beq	.L353
 216:Drivers/STM32F4xx_HAL_Driver/Src/stm32f4xx_hal_dma_ex.c ****     __HAL_DMA_CLEAR_FLAG (hdma, __HAL_DMA_GET_HT_FLAG_INDEX(hdma));
 777              		.loc 1 216 0 discriminator 17
 778 0430 02F58062 		add	r2, r2, #1024
 779 0434 9342     		cmp	r3, r2
 780 0436 10D0     		beq	.L354
 216:Drivers/STM32F4xx_HAL_Driver/Src/stm32f4xx_hal_dma_ex.c ****     __HAL_DMA_CLEAR_FLAG (hdma, __HAL_DMA_GET_HT_FLAG_INDEX(hdma));
 781              		.loc 1 216 0 discriminator 19
 782 0438 A2F56872 		sub	r2, r2, #928
 783 043c 9342     		cmp	r3, r2
 784 043e 08D0     		beq	.L355
 216:Drivers/STM32F4xx_HAL_Driver/Src/stm32f4xx_hal_dma_ex.c ****     __HAL_DMA_CLEAR_FLAG (hdma, __HAL_DMA_GET_HT_FLAG_INDEX(hdma));
 785              		.loc 1 216 0 discriminator 21
 786 0440 02F58062 		add	r2, r2, #1024
 787 0444 9342     		cmp	r3, r2
 788 0446 14BF     		ite	ne
 789 0448 4FF08063 		movne	r3, #67108864
 790 044c 4FF48013 		moveq	r3, #1048576
 791 0450 01E0     		b	.L94
 792              	.L355:
 216:Drivers/STM32F4xx_HAL_Driver/Src/stm32f4xx_hal_dma_ex.c ****     __HAL_DMA_CLEAR_FLAG (hdma, __HAL_DMA_GET_HT_FLAG_INDEX(hdma));
 793              		.loc 1 216 0
 794 0452 4FF48013 		mov	r3, #1048576
 795              	.L94:
 216:Drivers/STM32F4xx_HAL_Driver/Src/stm32f4xx_hal_dma_ex.c ****     __HAL_DMA_CLEAR_FLAG (hdma, __HAL_DMA_GET_HT_FLAG_INDEX(hdma));
 796              		.loc 1 216 0 discriminator 61
 797 0456 1A46     		mov	r2, r3
 798 0458 18E0     		b	.L84
 799              	.L354:
 216:Drivers/STM32F4xx_HAL_Driver/Src/stm32f4xx_hal_dma_ex.c ****     __HAL_DMA_CLEAR_FLAG (hdma, __HAL_DMA_GET_HT_FLAG_INDEX(hdma));
 800              		.loc 1 216 0
 801 045a 4FF48012 		mov	r2, #1048576
 802 045e 15E0     		b	.L84
 803              	.L353:
 804 0460 4FF48012 		mov	r2, #1048576
 805 0464 12E0     		b	.L84
 806              	.L352:
 807 0466 4FF48062 		mov	r2, #1024
 808 046a 0FE0     		b	.L84
 809              	.L351:
 810 046c 4FF48062 		mov	r2, #1024
 811 0470 0CE0     		b	.L84
 812              	.L350:
 813 0472 4FF48062 		mov	r2, #1024
ARM GAS  /var/folders/m5/1z2v3_dd2cg5xnclvhns6x640000gn/T//ccsZslox.s 			page 23


 814 0476 09E0     		b	.L84
 815              	.L349:
 816 0478 4FF48062 		mov	r2, #1024
 817 047c 06E0     		b	.L84
 818              	.L348:
 819 047e 1022     		movs	r2, #16
 820 0480 04E0     		b	.L84
 821              	.L347:
 822 0482 1022     		movs	r2, #16
 823 0484 02E0     		b	.L84
 824              	.L346:
 825 0486 1022     		movs	r2, #16
 826 0488 00E0     		b	.L84
 827              	.L345:
 828 048a 1022     		movs	r2, #16
 829              	.L84:
 216:Drivers/STM32F4xx_HAL_Driver/Src/stm32f4xx_hal_dma_ex.c ****     __HAL_DMA_CLEAR_FLAG (hdma, __HAL_DMA_GET_HT_FLAG_INDEX(hdma));
 830              		.loc 1 216 0 discriminator 71
 831 048c 564B     		ldr	r3, .L527+8
 832 048e 9A60     		str	r2, [r3, #8]
 833 0490 B5E0     		b	.L82
 834              	.L83:
 216:Drivers/STM32F4xx_HAL_Driver/Src/stm32f4xx_hal_dma_ex.c ****     __HAL_DMA_CLEAR_FLAG (hdma, __HAL_DMA_GET_HT_FLAG_INDEX(hdma));
 835              		.loc 1 216 0 discriminator 2
 836 0492 574A     		ldr	r2, .L527+16
 837 0494 9342     		cmp	r3, r2
 838 0496 53D9     		bls	.L96
 216:Drivers/STM32F4xx_HAL_Driver/Src/stm32f4xx_hal_dma_ex.c ****     __HAL_DMA_CLEAR_FLAG (hdma, __HAL_DMA_GET_HT_FLAG_INDEX(hdma));
 839              		.loc 1 216 0 discriminator 1
 840 0498 483A     		subs	r2, r2, #72
 841 049a 9342     		cmp	r3, r2
 842 049c 4CD0     		beq	.L357
 843 049e 02F58062 		add	r2, r2, #1024
 844 04a2 9342     		cmp	r3, r2
 845 04a4 46D0     		beq	.L358
 216:Drivers/STM32F4xx_HAL_Driver/Src/stm32f4xx_hal_dma_ex.c ****     __HAL_DMA_CLEAR_FLAG (hdma, __HAL_DMA_GET_HT_FLAG_INDEX(hdma));
 846              		.loc 1 216 0 discriminator 3
 847 04a6 A2F56872 		sub	r2, r2, #928
 848 04aa 9342     		cmp	r3, r2
 849 04ac 40D0     		beq	.L359
 216:Drivers/STM32F4xx_HAL_Driver/Src/stm32f4xx_hal_dma_ex.c ****     __HAL_DMA_CLEAR_FLAG (hdma, __HAL_DMA_GET_HT_FLAG_INDEX(hdma));
 850              		.loc 1 216 0 discriminator 5
 851 04ae 02F58062 		add	r2, r2, #1024
 852 04b2 9342     		cmp	r3, r2
 853 04b4 3AD0     		beq	.L360
 216:Drivers/STM32F4xx_HAL_Driver/Src/stm32f4xx_hal_dma_ex.c ****     __HAL_DMA_CLEAR_FLAG (hdma, __HAL_DMA_GET_HT_FLAG_INDEX(hdma));
 854              		.loc 1 216 0 discriminator 7
 855 04b6 A2F58962 		sub	r2, r2, #1096
 856 04ba 9342     		cmp	r3, r2
 857 04bc 33D0     		beq	.L361
 216:Drivers/STM32F4xx_HAL_Driver/Src/stm32f4xx_hal_dma_ex.c ****     __HAL_DMA_CLEAR_FLAG (hdma, __HAL_DMA_GET_HT_FLAG_INDEX(hdma));
 858              		.loc 1 216 0 discriminator 9
 859 04be 02F58062 		add	r2, r2, #1024
 860 04c2 9342     		cmp	r3, r2
 861 04c4 2CD0     		beq	.L362
 216:Drivers/STM32F4xx_HAL_Driver/Src/stm32f4xx_hal_dma_ex.c ****     __HAL_DMA_CLEAR_FLAG (hdma, __HAL_DMA_GET_HT_FLAG_INDEX(hdma));
 862              		.loc 1 216 0 discriminator 11
ARM GAS  /var/folders/m5/1z2v3_dd2cg5xnclvhns6x640000gn/T//ccsZslox.s 			page 24


 863 04c6 A2F56872 		sub	r2, r2, #928
 864 04ca 9342     		cmp	r3, r2
 865 04cc 25D0     		beq	.L363
 216:Drivers/STM32F4xx_HAL_Driver/Src/stm32f4xx_hal_dma_ex.c ****     __HAL_DMA_CLEAR_FLAG (hdma, __HAL_DMA_GET_HT_FLAG_INDEX(hdma));
 866              		.loc 1 216 0 discriminator 13
 867 04ce 02F58062 		add	r2, r2, #1024
 868 04d2 9342     		cmp	r3, r2
 869 04d4 1ED0     		beq	.L364
 216:Drivers/STM32F4xx_HAL_Driver/Src/stm32f4xx_hal_dma_ex.c ****     __HAL_DMA_CLEAR_FLAG (hdma, __HAL_DMA_GET_HT_FLAG_INDEX(hdma));
 870              		.loc 1 216 0 discriminator 15
 871 04d6 A2F58962 		sub	r2, r2, #1096
 872 04da 9342     		cmp	r3, r2
 873 04dc 17D0     		beq	.L365
 216:Drivers/STM32F4xx_HAL_Driver/Src/stm32f4xx_hal_dma_ex.c ****     __HAL_DMA_CLEAR_FLAG (hdma, __HAL_DMA_GET_HT_FLAG_INDEX(hdma));
 874              		.loc 1 216 0 discriminator 17
 875 04de 02F58062 		add	r2, r2, #1024
 876 04e2 9342     		cmp	r3, r2
 877 04e4 10D0     		beq	.L366
 216:Drivers/STM32F4xx_HAL_Driver/Src/stm32f4xx_hal_dma_ex.c ****     __HAL_DMA_CLEAR_FLAG (hdma, __HAL_DMA_GET_HT_FLAG_INDEX(hdma));
 878              		.loc 1 216 0 discriminator 19
 879 04e6 A2F56872 		sub	r2, r2, #928
 880 04ea 9342     		cmp	r3, r2
 881 04ec 08D0     		beq	.L367
 216:Drivers/STM32F4xx_HAL_Driver/Src/stm32f4xx_hal_dma_ex.c ****     __HAL_DMA_CLEAR_FLAG (hdma, __HAL_DMA_GET_HT_FLAG_INDEX(hdma));
 882              		.loc 1 216 0 discriminator 21
 883 04ee 02F58062 		add	r2, r2, #1024
 884 04f2 9342     		cmp	r3, r2
 885 04f4 14BF     		ite	ne
 886 04f6 4FF08063 		movne	r3, #67108864
 887 04fa 4FF48013 		moveq	r3, #1048576
 888 04fe 01E0     		b	.L107
 889              	.L367:
 216:Drivers/STM32F4xx_HAL_Driver/Src/stm32f4xx_hal_dma_ex.c ****     __HAL_DMA_CLEAR_FLAG (hdma, __HAL_DMA_GET_HT_FLAG_INDEX(hdma));
 890              		.loc 1 216 0
 891 0500 4FF48013 		mov	r3, #1048576
 892              	.L107:
 216:Drivers/STM32F4xx_HAL_Driver/Src/stm32f4xx_hal_dma_ex.c ****     __HAL_DMA_CLEAR_FLAG (hdma, __HAL_DMA_GET_HT_FLAG_INDEX(hdma));
 893              		.loc 1 216 0 discriminator 73
 894 0504 1A46     		mov	r2, r3
 895 0506 18E0     		b	.L97
 896              	.L366:
 216:Drivers/STM32F4xx_HAL_Driver/Src/stm32f4xx_hal_dma_ex.c ****     __HAL_DMA_CLEAR_FLAG (hdma, __HAL_DMA_GET_HT_FLAG_INDEX(hdma));
 897              		.loc 1 216 0
 898 0508 4FF48012 		mov	r2, #1048576
 899 050c 15E0     		b	.L97
 900              	.L365:
 901 050e 4FF48012 		mov	r2, #1048576
 902 0512 12E0     		b	.L97
 903              	.L364:
 904 0514 4FF48062 		mov	r2, #1024
 905 0518 0FE0     		b	.L97
 906              	.L363:
 907 051a 4FF48062 		mov	r2, #1024
 908 051e 0CE0     		b	.L97
 909              	.L362:
 910 0520 4FF48062 		mov	r2, #1024
 911 0524 09E0     		b	.L97
ARM GAS  /var/folders/m5/1z2v3_dd2cg5xnclvhns6x640000gn/T//ccsZslox.s 			page 25


 912              	.L361:
 913 0526 4FF48062 		mov	r2, #1024
 914 052a 06E0     		b	.L97
 915              	.L360:
 916 052c 1022     		movs	r2, #16
 917 052e 04E0     		b	.L97
 918              	.L359:
 919 0530 1022     		movs	r2, #16
 920 0532 02E0     		b	.L97
 921              	.L358:
 922 0534 1022     		movs	r2, #16
 923 0536 00E0     		b	.L97
 924              	.L357:
 925 0538 1022     		movs	r2, #16
 926              	.L97:
 216:Drivers/STM32F4xx_HAL_Driver/Src/stm32f4xx_hal_dma_ex.c ****     __HAL_DMA_CLEAR_FLAG (hdma, __HAL_DMA_GET_HT_FLAG_INDEX(hdma));
 927              		.loc 1 216 0 discriminator 83
 928 053a 294B     		ldr	r3, .L527
 929 053c DA60     		str	r2, [r3, #12]
 930 053e 5EE0     		b	.L82
 931              	.L96:
 216:Drivers/STM32F4xx_HAL_Driver/Src/stm32f4xx_hal_dma_ex.c ****     __HAL_DMA_CLEAR_FLAG (hdma, __HAL_DMA_GET_HT_FLAG_INDEX(hdma));
 932              		.loc 1 216 0 discriminator 2
 933 0540 2C4A     		ldr	r2, .L527+20
 934 0542 9342     		cmp	r3, r2
 935 0544 58D0     		beq	.L369
 216:Drivers/STM32F4xx_HAL_Driver/Src/stm32f4xx_hal_dma_ex.c ****     __HAL_DMA_CLEAR_FLAG (hdma, __HAL_DMA_GET_HT_FLAG_INDEX(hdma));
 936              		.loc 1 216 0 discriminator 1
 937 0546 02F58062 		add	r2, r2, #1024
 938 054a 9342     		cmp	r3, r2
 939 054c 46D0     		beq	.L370
 216:Drivers/STM32F4xx_HAL_Driver/Src/stm32f4xx_hal_dma_ex.c ****     __HAL_DMA_CLEAR_FLAG (hdma, __HAL_DMA_GET_HT_FLAG_INDEX(hdma));
 940              		.loc 1 216 0 discriminator 3
 941 054e A2F56872 		sub	r2, r2, #928
 942 0552 9342     		cmp	r3, r2
 943 0554 40D0     		beq	.L371
 216:Drivers/STM32F4xx_HAL_Driver/Src/stm32f4xx_hal_dma_ex.c ****     __HAL_DMA_CLEAR_FLAG (hdma, __HAL_DMA_GET_HT_FLAG_INDEX(hdma));
 944              		.loc 1 216 0 discriminator 5
 945 0556 02F58062 		add	r2, r2, #1024
 946 055a 9342     		cmp	r3, r2
 947 055c 3AD0     		beq	.L372
 216:Drivers/STM32F4xx_HAL_Driver/Src/stm32f4xx_hal_dma_ex.c ****     __HAL_DMA_CLEAR_FLAG (hdma, __HAL_DMA_GET_HT_FLAG_INDEX(hdma));
 948              		.loc 1 216 0 discriminator 7
 949 055e A2F58962 		sub	r2, r2, #1096
 950 0562 9342     		cmp	r3, r2
 951 0564 33D0     		beq	.L373
 216:Drivers/STM32F4xx_HAL_Driver/Src/stm32f4xx_hal_dma_ex.c ****     __HAL_DMA_CLEAR_FLAG (hdma, __HAL_DMA_GET_HT_FLAG_INDEX(hdma));
 952              		.loc 1 216 0 discriminator 9
 953 0566 02F58062 		add	r2, r2, #1024
 954 056a 9342     		cmp	r3, r2
 955 056c 2CD0     		beq	.L374
 216:Drivers/STM32F4xx_HAL_Driver/Src/stm32f4xx_hal_dma_ex.c ****     __HAL_DMA_CLEAR_FLAG (hdma, __HAL_DMA_GET_HT_FLAG_INDEX(hdma));
 956              		.loc 1 216 0 discriminator 11
 957 056e A2F56872 		sub	r2, r2, #928
 958 0572 9342     		cmp	r3, r2
 959 0574 25D0     		beq	.L375
 216:Drivers/STM32F4xx_HAL_Driver/Src/stm32f4xx_hal_dma_ex.c ****     __HAL_DMA_CLEAR_FLAG (hdma, __HAL_DMA_GET_HT_FLAG_INDEX(hdma));
ARM GAS  /var/folders/m5/1z2v3_dd2cg5xnclvhns6x640000gn/T//ccsZslox.s 			page 26


 960              		.loc 1 216 0 discriminator 13
 961 0576 02F58062 		add	r2, r2, #1024
 962 057a 9342     		cmp	r3, r2
 963 057c 1ED0     		beq	.L376
 216:Drivers/STM32F4xx_HAL_Driver/Src/stm32f4xx_hal_dma_ex.c ****     __HAL_DMA_CLEAR_FLAG (hdma, __HAL_DMA_GET_HT_FLAG_INDEX(hdma));
 964              		.loc 1 216 0 discriminator 15
 965 057e A2F58962 		sub	r2, r2, #1096
 966 0582 9342     		cmp	r3, r2
 967 0584 17D0     		beq	.L377
 216:Drivers/STM32F4xx_HAL_Driver/Src/stm32f4xx_hal_dma_ex.c ****     __HAL_DMA_CLEAR_FLAG (hdma, __HAL_DMA_GET_HT_FLAG_INDEX(hdma));
 968              		.loc 1 216 0 discriminator 17
 969 0586 02F58062 		add	r2, r2, #1024
 970 058a 9342     		cmp	r3, r2
 971 058c 10D0     		beq	.L378
 216:Drivers/STM32F4xx_HAL_Driver/Src/stm32f4xx_hal_dma_ex.c ****     __HAL_DMA_CLEAR_FLAG (hdma, __HAL_DMA_GET_HT_FLAG_INDEX(hdma));
 972              		.loc 1 216 0 discriminator 19
 973 058e A2F56872 		sub	r2, r2, #928
 974 0592 9342     		cmp	r3, r2
 975 0594 08D0     		beq	.L379
 216:Drivers/STM32F4xx_HAL_Driver/Src/stm32f4xx_hal_dma_ex.c ****     __HAL_DMA_CLEAR_FLAG (hdma, __HAL_DMA_GET_HT_FLAG_INDEX(hdma));
 976              		.loc 1 216 0 discriminator 21
 977 0596 02F58062 		add	r2, r2, #1024
 978 059a 9342     		cmp	r3, r2
 979 059c 14BF     		ite	ne
 980 059e 4FF08063 		movne	r3, #67108864
 981 05a2 4FF48013 		moveq	r3, #1048576
 982 05a6 01E0     		b	.L120
 983              	.L379:
 216:Drivers/STM32F4xx_HAL_Driver/Src/stm32f4xx_hal_dma_ex.c ****     __HAL_DMA_CLEAR_FLAG (hdma, __HAL_DMA_GET_HT_FLAG_INDEX(hdma));
 984              		.loc 1 216 0
 985 05a8 4FF48013 		mov	r3, #1048576
 986              	.L120:
 216:Drivers/STM32F4xx_HAL_Driver/Src/stm32f4xx_hal_dma_ex.c ****     __HAL_DMA_CLEAR_FLAG (hdma, __HAL_DMA_GET_HT_FLAG_INDEX(hdma));
 987              		.loc 1 216 0 discriminator 85
 988 05ac 1A46     		mov	r2, r3
 989 05ae 24E0     		b	.L110
 990              	.L378:
 216:Drivers/STM32F4xx_HAL_Driver/Src/stm32f4xx_hal_dma_ex.c ****     __HAL_DMA_CLEAR_FLAG (hdma, __HAL_DMA_GET_HT_FLAG_INDEX(hdma));
 991              		.loc 1 216 0
 992 05b0 4FF48012 		mov	r2, #1048576
 993 05b4 21E0     		b	.L110
 994              	.L377:
 995 05b6 4FF48012 		mov	r2, #1048576
 996 05ba 1EE0     		b	.L110
 997              	.L376:
 998 05bc 4FF48062 		mov	r2, #1024
 999 05c0 1BE0     		b	.L110
 1000              	.L375:
 1001 05c2 4FF48062 		mov	r2, #1024
 1002 05c6 18E0     		b	.L110
 1003              	.L374:
 1004 05c8 4FF48062 		mov	r2, #1024
 1005 05cc 15E0     		b	.L110
 1006              	.L373:
 1007 05ce 4FF48062 		mov	r2, #1024
 1008 05d2 12E0     		b	.L110
 1009              	.L372:
ARM GAS  /var/folders/m5/1z2v3_dd2cg5xnclvhns6x640000gn/T//ccsZslox.s 			page 27


 1010 05d4 1022     		movs	r2, #16
 1011 05d6 10E0     		b	.L110
 1012              	.L371:
 1013 05d8 1022     		movs	r2, #16
 1014 05da 0EE0     		b	.L110
 1015              	.L370:
 1016 05dc 1022     		movs	r2, #16
 1017 05de 0CE0     		b	.L110
 1018              	.L528:
 1019              		.align	2
 1020              	.L527:
 1021 05e0 00600240 		.word	1073897472
 1022 05e4 58640240 		.word	1073898584
 1023 05e8 00640240 		.word	1073898496
 1024 05ec B8600240 		.word	1073897656
 1025 05f0 58600240 		.word	1073897560
 1026 05f4 10600240 		.word	1073897488
 1027              	.L369:
 1028 05f8 1022     		movs	r2, #16
 1029              	.L110:
 216:Drivers/STM32F4xx_HAL_Driver/Src/stm32f4xx_hal_dma_ex.c ****     __HAL_DMA_CLEAR_FLAG (hdma, __HAL_DMA_GET_HT_FLAG_INDEX(hdma));
 1030              		.loc 1 216 0 discriminator 25
 1031 05fa AC4B     		ldr	r3, .L529
 1032 05fc 9A60     		str	r2, [r3, #8]
 1033              	.L82:
 217:Drivers/STM32F4xx_HAL_Driver/Src/stm32f4xx_hal_dma_ex.c ****     __HAL_DMA_CLEAR_FLAG (hdma, __HAL_DMA_GET_TE_FLAG_INDEX(hdma));
 1034              		.loc 1 217 0 is_stmt 1
 1035 05fe 2368     		ldr	r3, [r4]
 1036 0600 AB4A     		ldr	r2, .L529+4
 1037 0602 9342     		cmp	r3, r2
 1038 0604 54D9     		bls	.L122
 217:Drivers/STM32F4xx_HAL_Driver/Src/stm32f4xx_hal_dma_ex.c ****     __HAL_DMA_CLEAR_FLAG (hdma, __HAL_DMA_GET_TE_FLAG_INDEX(hdma));
 1039              		.loc 1 217 0 is_stmt 0 discriminator 1
 1040 0606 A2F58962 		sub	r2, r2, #1096
 1041 060a 9342     		cmp	r3, r2
 1042 060c 4CD0     		beq	.L381
 1043 060e 02F58062 		add	r2, r2, #1024
 1044 0612 9342     		cmp	r3, r2
 1045 0614 46D0     		beq	.L382
 217:Drivers/STM32F4xx_HAL_Driver/Src/stm32f4xx_hal_dma_ex.c ****     __HAL_DMA_CLEAR_FLAG (hdma, __HAL_DMA_GET_TE_FLAG_INDEX(hdma));
 1046              		.loc 1 217 0 discriminator 3
 1047 0616 A2F56872 		sub	r2, r2, #928
 1048 061a 9342     		cmp	r3, r2
 1049 061c 40D0     		beq	.L383
 217:Drivers/STM32F4xx_HAL_Driver/Src/stm32f4xx_hal_dma_ex.c ****     __HAL_DMA_CLEAR_FLAG (hdma, __HAL_DMA_GET_TE_FLAG_INDEX(hdma));
 1050              		.loc 1 217 0 discriminator 5
 1051 061e 02F58062 		add	r2, r2, #1024
 1052 0622 9342     		cmp	r3, r2
 1053 0624 3AD0     		beq	.L384
 217:Drivers/STM32F4xx_HAL_Driver/Src/stm32f4xx_hal_dma_ex.c ****     __HAL_DMA_CLEAR_FLAG (hdma, __HAL_DMA_GET_TE_FLAG_INDEX(hdma));
 1054              		.loc 1 217 0 discriminator 7
 1055 0626 A2F58962 		sub	r2, r2, #1096
 1056 062a 9342     		cmp	r3, r2
 1057 062c 33D0     		beq	.L385
 217:Drivers/STM32F4xx_HAL_Driver/Src/stm32f4xx_hal_dma_ex.c ****     __HAL_DMA_CLEAR_FLAG (hdma, __HAL_DMA_GET_TE_FLAG_INDEX(hdma));
 1058              		.loc 1 217 0 discriminator 9
 1059 062e 02F58062 		add	r2, r2, #1024
ARM GAS  /var/folders/m5/1z2v3_dd2cg5xnclvhns6x640000gn/T//ccsZslox.s 			page 28


 1060 0632 9342     		cmp	r3, r2
 1061 0634 2CD0     		beq	.L386
 217:Drivers/STM32F4xx_HAL_Driver/Src/stm32f4xx_hal_dma_ex.c ****     __HAL_DMA_CLEAR_FLAG (hdma, __HAL_DMA_GET_TE_FLAG_INDEX(hdma));
 1062              		.loc 1 217 0 discriminator 11
 1063 0636 A2F56872 		sub	r2, r2, #928
 1064 063a 9342     		cmp	r3, r2
 1065 063c 25D0     		beq	.L387
 217:Drivers/STM32F4xx_HAL_Driver/Src/stm32f4xx_hal_dma_ex.c ****     __HAL_DMA_CLEAR_FLAG (hdma, __HAL_DMA_GET_TE_FLAG_INDEX(hdma));
 1066              		.loc 1 217 0 discriminator 13
 1067 063e 02F58062 		add	r2, r2, #1024
 1068 0642 9342     		cmp	r3, r2
 1069 0644 1ED0     		beq	.L388
 217:Drivers/STM32F4xx_HAL_Driver/Src/stm32f4xx_hal_dma_ex.c ****     __HAL_DMA_CLEAR_FLAG (hdma, __HAL_DMA_GET_TE_FLAG_INDEX(hdma));
 1070              		.loc 1 217 0 discriminator 15
 1071 0646 A2F58962 		sub	r2, r2, #1096
 1072 064a 9342     		cmp	r3, r2
 1073 064c 17D0     		beq	.L389
 217:Drivers/STM32F4xx_HAL_Driver/Src/stm32f4xx_hal_dma_ex.c ****     __HAL_DMA_CLEAR_FLAG (hdma, __HAL_DMA_GET_TE_FLAG_INDEX(hdma));
 1074              		.loc 1 217 0 discriminator 17
 1075 064e 02F58062 		add	r2, r2, #1024
 1076 0652 9342     		cmp	r3, r2
 1077 0654 10D0     		beq	.L390
 217:Drivers/STM32F4xx_HAL_Driver/Src/stm32f4xx_hal_dma_ex.c ****     __HAL_DMA_CLEAR_FLAG (hdma, __HAL_DMA_GET_TE_FLAG_INDEX(hdma));
 1078              		.loc 1 217 0 discriminator 19
 1079 0656 A2F56872 		sub	r2, r2, #928
 1080 065a 9342     		cmp	r3, r2
 1081 065c 08D0     		beq	.L391
 217:Drivers/STM32F4xx_HAL_Driver/Src/stm32f4xx_hal_dma_ex.c ****     __HAL_DMA_CLEAR_FLAG (hdma, __HAL_DMA_GET_TE_FLAG_INDEX(hdma));
 1082              		.loc 1 217 0 discriminator 21
 1083 065e 02F58062 		add	r2, r2, #1024
 1084 0662 9342     		cmp	r3, r2
 1085 0664 14BF     		ite	ne
 1086 0666 4FF00073 		movne	r3, #33554432
 1087 066a 4FF40023 		moveq	r3, #524288
 1088 066e 01E0     		b	.L133
 1089              	.L391:
 217:Drivers/STM32F4xx_HAL_Driver/Src/stm32f4xx_hal_dma_ex.c ****     __HAL_DMA_CLEAR_FLAG (hdma, __HAL_DMA_GET_TE_FLAG_INDEX(hdma));
 1090              		.loc 1 217 0
 1091 0670 4FF40023 		mov	r3, #524288
 1092              	.L133:
 217:Drivers/STM32F4xx_HAL_Driver/Src/stm32f4xx_hal_dma_ex.c ****     __HAL_DMA_CLEAR_FLAG (hdma, __HAL_DMA_GET_TE_FLAG_INDEX(hdma));
 1093              		.loc 1 217 0 discriminator 96
 1094 0674 1A46     		mov	r2, r3
 1095 0676 18E0     		b	.L123
 1096              	.L390:
 217:Drivers/STM32F4xx_HAL_Driver/Src/stm32f4xx_hal_dma_ex.c ****     __HAL_DMA_CLEAR_FLAG (hdma, __HAL_DMA_GET_TE_FLAG_INDEX(hdma));
 1097              		.loc 1 217 0
 1098 0678 4FF40022 		mov	r2, #524288
 1099 067c 15E0     		b	.L123
 1100              	.L389:
 1101 067e 4FF40022 		mov	r2, #524288
 1102 0682 12E0     		b	.L123
 1103              	.L388:
 1104 0684 4FF40072 		mov	r2, #512
 1105 0688 0FE0     		b	.L123
 1106              	.L387:
 1107 068a 4FF40072 		mov	r2, #512
ARM GAS  /var/folders/m5/1z2v3_dd2cg5xnclvhns6x640000gn/T//ccsZslox.s 			page 29


 1108 068e 0CE0     		b	.L123
 1109              	.L386:
 1110 0690 4FF40072 		mov	r2, #512
 1111 0694 09E0     		b	.L123
 1112              	.L385:
 1113 0696 4FF40072 		mov	r2, #512
 1114 069a 06E0     		b	.L123
 1115              	.L384:
 1116 069c 0822     		movs	r2, #8
 1117 069e 04E0     		b	.L123
 1118              	.L383:
 1119 06a0 0822     		movs	r2, #8
 1120 06a2 02E0     		b	.L123
 1121              	.L382:
 1122 06a4 0822     		movs	r2, #8
 1123 06a6 00E0     		b	.L123
 1124              	.L381:
 1125 06a8 0822     		movs	r2, #8
 1126              	.L123:
 217:Drivers/STM32F4xx_HAL_Driver/Src/stm32f4xx_hal_dma_ex.c ****     __HAL_DMA_CLEAR_FLAG (hdma, __HAL_DMA_GET_TE_FLAG_INDEX(hdma));
 1127              		.loc 1 217 0 discriminator 106
 1128 06aa 824B     		ldr	r3, .L529+8
 1129 06ac DA60     		str	r2, [r3, #12]
 1130 06ae 0CE1     		b	.L135
 1131              	.L122:
 217:Drivers/STM32F4xx_HAL_Driver/Src/stm32f4xx_hal_dma_ex.c ****     __HAL_DMA_CLEAR_FLAG (hdma, __HAL_DMA_GET_TE_FLAG_INDEX(hdma));
 1132              		.loc 1 217 0 discriminator 2
 1133 06b0 814A     		ldr	r2, .L529+12
 1134 06b2 9342     		cmp	r3, r2
 1135 06b4 53D9     		bls	.L136
 217:Drivers/STM32F4xx_HAL_Driver/Src/stm32f4xx_hal_dma_ex.c ****     __HAL_DMA_CLEAR_FLAG (hdma, __HAL_DMA_GET_TE_FLAG_INDEX(hdma));
 1136              		.loc 1 217 0 discriminator 1
 1137 06b6 A83A     		subs	r2, r2, #168
 1138 06b8 9342     		cmp	r3, r2
 1139 06ba 4CD0     		beq	.L393
 1140 06bc 02F58062 		add	r2, r2, #1024
 1141 06c0 9342     		cmp	r3, r2
 1142 06c2 46D0     		beq	.L394
 217:Drivers/STM32F4xx_HAL_Driver/Src/stm32f4xx_hal_dma_ex.c ****     __HAL_DMA_CLEAR_FLAG (hdma, __HAL_DMA_GET_TE_FLAG_INDEX(hdma));
 1143              		.loc 1 217 0 discriminator 3
 1144 06c4 A2F56872 		sub	r2, r2, #928
 1145 06c8 9342     		cmp	r3, r2
 1146 06ca 40D0     		beq	.L395
 217:Drivers/STM32F4xx_HAL_Driver/Src/stm32f4xx_hal_dma_ex.c ****     __HAL_DMA_CLEAR_FLAG (hdma, __HAL_DMA_GET_TE_FLAG_INDEX(hdma));
 1147              		.loc 1 217 0 discriminator 5
 1148 06cc 02F58062 		add	r2, r2, #1024
 1149 06d0 9342     		cmp	r3, r2
 1150 06d2 3AD0     		beq	.L396
 217:Drivers/STM32F4xx_HAL_Driver/Src/stm32f4xx_hal_dma_ex.c ****     __HAL_DMA_CLEAR_FLAG (hdma, __HAL_DMA_GET_TE_FLAG_INDEX(hdma));
 1151              		.loc 1 217 0 discriminator 7
 1152 06d4 A2F58962 		sub	r2, r2, #1096
 1153 06d8 9342     		cmp	r3, r2
 1154 06da 33D0     		beq	.L397
 217:Drivers/STM32F4xx_HAL_Driver/Src/stm32f4xx_hal_dma_ex.c ****     __HAL_DMA_CLEAR_FLAG (hdma, __HAL_DMA_GET_TE_FLAG_INDEX(hdma));
 1155              		.loc 1 217 0 discriminator 9
 1156 06dc 02F58062 		add	r2, r2, #1024
 1157 06e0 9342     		cmp	r3, r2
ARM GAS  /var/folders/m5/1z2v3_dd2cg5xnclvhns6x640000gn/T//ccsZslox.s 			page 30


 1158 06e2 2CD0     		beq	.L398
 217:Drivers/STM32F4xx_HAL_Driver/Src/stm32f4xx_hal_dma_ex.c ****     __HAL_DMA_CLEAR_FLAG (hdma, __HAL_DMA_GET_TE_FLAG_INDEX(hdma));
 1159              		.loc 1 217 0 discriminator 11
 1160 06e4 A2F56872 		sub	r2, r2, #928
 1161 06e8 9342     		cmp	r3, r2
 1162 06ea 25D0     		beq	.L399
 217:Drivers/STM32F4xx_HAL_Driver/Src/stm32f4xx_hal_dma_ex.c ****     __HAL_DMA_CLEAR_FLAG (hdma, __HAL_DMA_GET_TE_FLAG_INDEX(hdma));
 1163              		.loc 1 217 0 discriminator 13
 1164 06ec 02F58062 		add	r2, r2, #1024
 1165 06f0 9342     		cmp	r3, r2
 1166 06f2 1ED0     		beq	.L400
 217:Drivers/STM32F4xx_HAL_Driver/Src/stm32f4xx_hal_dma_ex.c ****     __HAL_DMA_CLEAR_FLAG (hdma, __HAL_DMA_GET_TE_FLAG_INDEX(hdma));
 1167              		.loc 1 217 0 discriminator 15
 1168 06f4 A2F58962 		sub	r2, r2, #1096
 1169 06f8 9342     		cmp	r3, r2
 1170 06fa 17D0     		beq	.L401
 217:Drivers/STM32F4xx_HAL_Driver/Src/stm32f4xx_hal_dma_ex.c ****     __HAL_DMA_CLEAR_FLAG (hdma, __HAL_DMA_GET_TE_FLAG_INDEX(hdma));
 1171              		.loc 1 217 0 discriminator 17
 1172 06fc 02F58062 		add	r2, r2, #1024
 1173 0700 9342     		cmp	r3, r2
 1174 0702 10D0     		beq	.L402
 217:Drivers/STM32F4xx_HAL_Driver/Src/stm32f4xx_hal_dma_ex.c ****     __HAL_DMA_CLEAR_FLAG (hdma, __HAL_DMA_GET_TE_FLAG_INDEX(hdma));
 1175              		.loc 1 217 0 discriminator 19
 1176 0704 A2F56872 		sub	r2, r2, #928
 1177 0708 9342     		cmp	r3, r2
 1178 070a 08D0     		beq	.L403
 217:Drivers/STM32F4xx_HAL_Driver/Src/stm32f4xx_hal_dma_ex.c ****     __HAL_DMA_CLEAR_FLAG (hdma, __HAL_DMA_GET_TE_FLAG_INDEX(hdma));
 1179              		.loc 1 217 0 discriminator 21
 1180 070c 02F58062 		add	r2, r2, #1024
 1181 0710 9342     		cmp	r3, r2
 1182 0712 14BF     		ite	ne
 1183 0714 4FF00073 		movne	r3, #33554432
 1184 0718 4FF40023 		moveq	r3, #524288
 1185 071c 01E0     		b	.L147
 1186              	.L403:
 217:Drivers/STM32F4xx_HAL_Driver/Src/stm32f4xx_hal_dma_ex.c ****     __HAL_DMA_CLEAR_FLAG (hdma, __HAL_DMA_GET_TE_FLAG_INDEX(hdma));
 1187              		.loc 1 217 0
 1188 071e 4FF40023 		mov	r3, #524288
 1189              	.L147:
 217:Drivers/STM32F4xx_HAL_Driver/Src/stm32f4xx_hal_dma_ex.c ****     __HAL_DMA_CLEAR_FLAG (hdma, __HAL_DMA_GET_TE_FLAG_INDEX(hdma));
 1190              		.loc 1 217 0 discriminator 108
 1191 0722 1A46     		mov	r2, r3
 1192 0724 18E0     		b	.L137
 1193              	.L402:
 217:Drivers/STM32F4xx_HAL_Driver/Src/stm32f4xx_hal_dma_ex.c ****     __HAL_DMA_CLEAR_FLAG (hdma, __HAL_DMA_GET_TE_FLAG_INDEX(hdma));
 1194              		.loc 1 217 0
 1195 0726 4FF40022 		mov	r2, #524288
 1196 072a 15E0     		b	.L137
 1197              	.L401:
 1198 072c 4FF40022 		mov	r2, #524288
 1199 0730 12E0     		b	.L137
 1200              	.L400:
 1201 0732 4FF40072 		mov	r2, #512
 1202 0736 0FE0     		b	.L137
 1203              	.L399:
 1204 0738 4FF40072 		mov	r2, #512
 1205 073c 0CE0     		b	.L137
ARM GAS  /var/folders/m5/1z2v3_dd2cg5xnclvhns6x640000gn/T//ccsZslox.s 			page 31


 1206              	.L398:
 1207 073e 4FF40072 		mov	r2, #512
 1208 0742 09E0     		b	.L137
 1209              	.L397:
 1210 0744 4FF40072 		mov	r2, #512
 1211 0748 06E0     		b	.L137
 1212              	.L396:
 1213 074a 0822     		movs	r2, #8
 1214 074c 04E0     		b	.L137
 1215              	.L395:
 1216 074e 0822     		movs	r2, #8
 1217 0750 02E0     		b	.L137
 1218              	.L394:
 1219 0752 0822     		movs	r2, #8
 1220 0754 00E0     		b	.L137
 1221              	.L393:
 1222 0756 0822     		movs	r2, #8
 1223              	.L137:
 217:Drivers/STM32F4xx_HAL_Driver/Src/stm32f4xx_hal_dma_ex.c ****     __HAL_DMA_CLEAR_FLAG (hdma, __HAL_DMA_GET_TE_FLAG_INDEX(hdma));
 1224              		.loc 1 217 0 discriminator 118
 1225 0758 564B     		ldr	r3, .L529+8
 1226 075a 9A60     		str	r2, [r3, #8]
 1227 075c B5E0     		b	.L135
 1228              	.L136:
 217:Drivers/STM32F4xx_HAL_Driver/Src/stm32f4xx_hal_dma_ex.c ****     __HAL_DMA_CLEAR_FLAG (hdma, __HAL_DMA_GET_TE_FLAG_INDEX(hdma));
 1229              		.loc 1 217 0 discriminator 2
 1230 075e 574A     		ldr	r2, .L529+16
 1231 0760 9342     		cmp	r3, r2
 1232 0762 53D9     		bls	.L149
 217:Drivers/STM32F4xx_HAL_Driver/Src/stm32f4xx_hal_dma_ex.c ****     __HAL_DMA_CLEAR_FLAG (hdma, __HAL_DMA_GET_TE_FLAG_INDEX(hdma));
 1233              		.loc 1 217 0 discriminator 1
 1234 0764 483A     		subs	r2, r2, #72
 1235 0766 9342     		cmp	r3, r2
 1236 0768 4CD0     		beq	.L405
 1237 076a 02F58062 		add	r2, r2, #1024
 1238 076e 9342     		cmp	r3, r2
 1239 0770 46D0     		beq	.L406
 217:Drivers/STM32F4xx_HAL_Driver/Src/stm32f4xx_hal_dma_ex.c ****     __HAL_DMA_CLEAR_FLAG (hdma, __HAL_DMA_GET_TE_FLAG_INDEX(hdma));
 1240              		.loc 1 217 0 discriminator 3
 1241 0772 A2F56872 		sub	r2, r2, #928
 1242 0776 9342     		cmp	r3, r2
 1243 0778 40D0     		beq	.L407
 217:Drivers/STM32F4xx_HAL_Driver/Src/stm32f4xx_hal_dma_ex.c ****     __HAL_DMA_CLEAR_FLAG (hdma, __HAL_DMA_GET_TE_FLAG_INDEX(hdma));
 1244              		.loc 1 217 0 discriminator 5
 1245 077a 02F58062 		add	r2, r2, #1024
 1246 077e 9342     		cmp	r3, r2
 1247 0780 3AD0     		beq	.L408
 217:Drivers/STM32F4xx_HAL_Driver/Src/stm32f4xx_hal_dma_ex.c ****     __HAL_DMA_CLEAR_FLAG (hdma, __HAL_DMA_GET_TE_FLAG_INDEX(hdma));
 1248              		.loc 1 217 0 discriminator 7
 1249 0782 A2F58962 		sub	r2, r2, #1096
 1250 0786 9342     		cmp	r3, r2
 1251 0788 33D0     		beq	.L409
 217:Drivers/STM32F4xx_HAL_Driver/Src/stm32f4xx_hal_dma_ex.c ****     __HAL_DMA_CLEAR_FLAG (hdma, __HAL_DMA_GET_TE_FLAG_INDEX(hdma));
 1252              		.loc 1 217 0 discriminator 9
 1253 078a 02F58062 		add	r2, r2, #1024
 1254 078e 9342     		cmp	r3, r2
 1255 0790 2CD0     		beq	.L410
ARM GAS  /var/folders/m5/1z2v3_dd2cg5xnclvhns6x640000gn/T//ccsZslox.s 			page 32


 217:Drivers/STM32F4xx_HAL_Driver/Src/stm32f4xx_hal_dma_ex.c ****     __HAL_DMA_CLEAR_FLAG (hdma, __HAL_DMA_GET_TE_FLAG_INDEX(hdma));
 1256              		.loc 1 217 0 discriminator 11
 1257 0792 A2F56872 		sub	r2, r2, #928
 1258 0796 9342     		cmp	r3, r2
 1259 0798 25D0     		beq	.L411
 217:Drivers/STM32F4xx_HAL_Driver/Src/stm32f4xx_hal_dma_ex.c ****     __HAL_DMA_CLEAR_FLAG (hdma, __HAL_DMA_GET_TE_FLAG_INDEX(hdma));
 1260              		.loc 1 217 0 discriminator 13
 1261 079a 02F58062 		add	r2, r2, #1024
 1262 079e 9342     		cmp	r3, r2
 1263 07a0 1ED0     		beq	.L412
 217:Drivers/STM32F4xx_HAL_Driver/Src/stm32f4xx_hal_dma_ex.c ****     __HAL_DMA_CLEAR_FLAG (hdma, __HAL_DMA_GET_TE_FLAG_INDEX(hdma));
 1264              		.loc 1 217 0 discriminator 15
 1265 07a2 A2F58962 		sub	r2, r2, #1096
 1266 07a6 9342     		cmp	r3, r2
 1267 07a8 17D0     		beq	.L413
 217:Drivers/STM32F4xx_HAL_Driver/Src/stm32f4xx_hal_dma_ex.c ****     __HAL_DMA_CLEAR_FLAG (hdma, __HAL_DMA_GET_TE_FLAG_INDEX(hdma));
 1268              		.loc 1 217 0 discriminator 17
 1269 07aa 02F58062 		add	r2, r2, #1024
 1270 07ae 9342     		cmp	r3, r2
 1271 07b0 10D0     		beq	.L414
 217:Drivers/STM32F4xx_HAL_Driver/Src/stm32f4xx_hal_dma_ex.c ****     __HAL_DMA_CLEAR_FLAG (hdma, __HAL_DMA_GET_TE_FLAG_INDEX(hdma));
 1272              		.loc 1 217 0 discriminator 19
 1273 07b2 A2F56872 		sub	r2, r2, #928
 1274 07b6 9342     		cmp	r3, r2
 1275 07b8 08D0     		beq	.L415
 217:Drivers/STM32F4xx_HAL_Driver/Src/stm32f4xx_hal_dma_ex.c ****     __HAL_DMA_CLEAR_FLAG (hdma, __HAL_DMA_GET_TE_FLAG_INDEX(hdma));
 1276              		.loc 1 217 0 discriminator 21
 1277 07ba 02F58062 		add	r2, r2, #1024
 1278 07be 9342     		cmp	r3, r2
 1279 07c0 14BF     		ite	ne
 1280 07c2 4FF00073 		movne	r3, #33554432
 1281 07c6 4FF40023 		moveq	r3, #524288
 1282 07ca 01E0     		b	.L160
 1283              	.L415:
 217:Drivers/STM32F4xx_HAL_Driver/Src/stm32f4xx_hal_dma_ex.c ****     __HAL_DMA_CLEAR_FLAG (hdma, __HAL_DMA_GET_TE_FLAG_INDEX(hdma));
 1284              		.loc 1 217 0
 1285 07cc 4FF40023 		mov	r3, #524288
 1286              	.L160:
 217:Drivers/STM32F4xx_HAL_Driver/Src/stm32f4xx_hal_dma_ex.c ****     __HAL_DMA_CLEAR_FLAG (hdma, __HAL_DMA_GET_TE_FLAG_INDEX(hdma));
 1287              		.loc 1 217 0 discriminator 120
 1288 07d0 1A46     		mov	r2, r3
 1289 07d2 18E0     		b	.L150
 1290              	.L414:
 217:Drivers/STM32F4xx_HAL_Driver/Src/stm32f4xx_hal_dma_ex.c ****     __HAL_DMA_CLEAR_FLAG (hdma, __HAL_DMA_GET_TE_FLAG_INDEX(hdma));
 1291              		.loc 1 217 0
 1292 07d4 4FF40022 		mov	r2, #524288
 1293 07d8 15E0     		b	.L150
 1294              	.L413:
 1295 07da 4FF40022 		mov	r2, #524288
 1296 07de 12E0     		b	.L150
 1297              	.L412:
 1298 07e0 4FF40072 		mov	r2, #512
 1299 07e4 0FE0     		b	.L150
 1300              	.L411:
 1301 07e6 4FF40072 		mov	r2, #512
 1302 07ea 0CE0     		b	.L150
 1303              	.L410:
ARM GAS  /var/folders/m5/1z2v3_dd2cg5xnclvhns6x640000gn/T//ccsZslox.s 			page 33


 1304 07ec 4FF40072 		mov	r2, #512
 1305 07f0 09E0     		b	.L150
 1306              	.L409:
 1307 07f2 4FF40072 		mov	r2, #512
 1308 07f6 06E0     		b	.L150
 1309              	.L408:
 1310 07f8 0822     		movs	r2, #8
 1311 07fa 04E0     		b	.L150
 1312              	.L407:
 1313 07fc 0822     		movs	r2, #8
 1314 07fe 02E0     		b	.L150
 1315              	.L406:
 1316 0800 0822     		movs	r2, #8
 1317 0802 00E0     		b	.L150
 1318              	.L405:
 1319 0804 0822     		movs	r2, #8
 1320              	.L150:
 217:Drivers/STM32F4xx_HAL_Driver/Src/stm32f4xx_hal_dma_ex.c ****     __HAL_DMA_CLEAR_FLAG (hdma, __HAL_DMA_GET_TE_FLAG_INDEX(hdma));
 1321              		.loc 1 217 0 discriminator 130
 1322 0806 294B     		ldr	r3, .L529
 1323 0808 DA60     		str	r2, [r3, #12]
 1324 080a 5EE0     		b	.L135
 1325              	.L149:
 217:Drivers/STM32F4xx_HAL_Driver/Src/stm32f4xx_hal_dma_ex.c ****     __HAL_DMA_CLEAR_FLAG (hdma, __HAL_DMA_GET_TE_FLAG_INDEX(hdma));
 1326              		.loc 1 217 0 discriminator 2
 1327 080c 2C4A     		ldr	r2, .L529+20
 1328 080e 9342     		cmp	r3, r2
 1329 0810 58D0     		beq	.L417
 217:Drivers/STM32F4xx_HAL_Driver/Src/stm32f4xx_hal_dma_ex.c ****     __HAL_DMA_CLEAR_FLAG (hdma, __HAL_DMA_GET_TE_FLAG_INDEX(hdma));
 1330              		.loc 1 217 0 discriminator 1
 1331 0812 02F58062 		add	r2, r2, #1024
 1332 0816 9342     		cmp	r3, r2
 1333 0818 46D0     		beq	.L418
 217:Drivers/STM32F4xx_HAL_Driver/Src/stm32f4xx_hal_dma_ex.c ****     __HAL_DMA_CLEAR_FLAG (hdma, __HAL_DMA_GET_TE_FLAG_INDEX(hdma));
 1334              		.loc 1 217 0 discriminator 3
 1335 081a A2F56872 		sub	r2, r2, #928
 1336 081e 9342     		cmp	r3, r2
 1337 0820 40D0     		beq	.L419
 217:Drivers/STM32F4xx_HAL_Driver/Src/stm32f4xx_hal_dma_ex.c ****     __HAL_DMA_CLEAR_FLAG (hdma, __HAL_DMA_GET_TE_FLAG_INDEX(hdma));
 1338              		.loc 1 217 0 discriminator 5
 1339 0822 02F58062 		add	r2, r2, #1024
 1340 0826 9342     		cmp	r3, r2
 1341 0828 3AD0     		beq	.L420
 217:Drivers/STM32F4xx_HAL_Driver/Src/stm32f4xx_hal_dma_ex.c ****     __HAL_DMA_CLEAR_FLAG (hdma, __HAL_DMA_GET_TE_FLAG_INDEX(hdma));
 1342              		.loc 1 217 0 discriminator 7
 1343 082a A2F58962 		sub	r2, r2, #1096
 1344 082e 9342     		cmp	r3, r2
 1345 0830 33D0     		beq	.L421
 217:Drivers/STM32F4xx_HAL_Driver/Src/stm32f4xx_hal_dma_ex.c ****     __HAL_DMA_CLEAR_FLAG (hdma, __HAL_DMA_GET_TE_FLAG_INDEX(hdma));
 1346              		.loc 1 217 0 discriminator 9
 1347 0832 02F58062 		add	r2, r2, #1024
 1348 0836 9342     		cmp	r3, r2
 1349 0838 2CD0     		beq	.L422
 217:Drivers/STM32F4xx_HAL_Driver/Src/stm32f4xx_hal_dma_ex.c ****     __HAL_DMA_CLEAR_FLAG (hdma, __HAL_DMA_GET_TE_FLAG_INDEX(hdma));
 1350              		.loc 1 217 0 discriminator 11
 1351 083a A2F56872 		sub	r2, r2, #928
 1352 083e 9342     		cmp	r3, r2
ARM GAS  /var/folders/m5/1z2v3_dd2cg5xnclvhns6x640000gn/T//ccsZslox.s 			page 34


 1353 0840 25D0     		beq	.L423
 217:Drivers/STM32F4xx_HAL_Driver/Src/stm32f4xx_hal_dma_ex.c ****     __HAL_DMA_CLEAR_FLAG (hdma, __HAL_DMA_GET_TE_FLAG_INDEX(hdma));
 1354              		.loc 1 217 0 discriminator 13
 1355 0842 02F58062 		add	r2, r2, #1024
 1356 0846 9342     		cmp	r3, r2
 1357 0848 1ED0     		beq	.L424
 217:Drivers/STM32F4xx_HAL_Driver/Src/stm32f4xx_hal_dma_ex.c ****     __HAL_DMA_CLEAR_FLAG (hdma, __HAL_DMA_GET_TE_FLAG_INDEX(hdma));
 1358              		.loc 1 217 0 discriminator 15
 1359 084a A2F58962 		sub	r2, r2, #1096
 1360 084e 9342     		cmp	r3, r2
 1361 0850 17D0     		beq	.L425
 217:Drivers/STM32F4xx_HAL_Driver/Src/stm32f4xx_hal_dma_ex.c ****     __HAL_DMA_CLEAR_FLAG (hdma, __HAL_DMA_GET_TE_FLAG_INDEX(hdma));
 1362              		.loc 1 217 0 discriminator 17
 1363 0852 02F58062 		add	r2, r2, #1024
 1364 0856 9342     		cmp	r3, r2
 1365 0858 10D0     		beq	.L426
 217:Drivers/STM32F4xx_HAL_Driver/Src/stm32f4xx_hal_dma_ex.c ****     __HAL_DMA_CLEAR_FLAG (hdma, __HAL_DMA_GET_TE_FLAG_INDEX(hdma));
 1366              		.loc 1 217 0 discriminator 19
 1367 085a A2F56872 		sub	r2, r2, #928
 1368 085e 9342     		cmp	r3, r2
 1369 0860 08D0     		beq	.L427
 217:Drivers/STM32F4xx_HAL_Driver/Src/stm32f4xx_hal_dma_ex.c ****     __HAL_DMA_CLEAR_FLAG (hdma, __HAL_DMA_GET_TE_FLAG_INDEX(hdma));
 1370              		.loc 1 217 0 discriminator 21
 1371 0862 02F58062 		add	r2, r2, #1024
 1372 0866 9342     		cmp	r3, r2
 1373 0868 14BF     		ite	ne
 1374 086a 4FF00073 		movne	r3, #33554432
 1375 086e 4FF40023 		moveq	r3, #524288
 1376 0872 01E0     		b	.L173
 1377              	.L427:
 217:Drivers/STM32F4xx_HAL_Driver/Src/stm32f4xx_hal_dma_ex.c ****     __HAL_DMA_CLEAR_FLAG (hdma, __HAL_DMA_GET_TE_FLAG_INDEX(hdma));
 1378              		.loc 1 217 0
 1379 0874 4FF40023 		mov	r3, #524288
 1380              	.L173:
 217:Drivers/STM32F4xx_HAL_Driver/Src/stm32f4xx_hal_dma_ex.c ****     __HAL_DMA_CLEAR_FLAG (hdma, __HAL_DMA_GET_TE_FLAG_INDEX(hdma));
 1381              		.loc 1 217 0 discriminator 132
 1382 0878 1A46     		mov	r2, r3
 1383 087a 24E0     		b	.L163
 1384              	.L426:
 217:Drivers/STM32F4xx_HAL_Driver/Src/stm32f4xx_hal_dma_ex.c ****     __HAL_DMA_CLEAR_FLAG (hdma, __HAL_DMA_GET_TE_FLAG_INDEX(hdma));
 1385              		.loc 1 217 0
 1386 087c 4FF40022 		mov	r2, #524288
 1387 0880 21E0     		b	.L163
 1388              	.L425:
 1389 0882 4FF40022 		mov	r2, #524288
 1390 0886 1EE0     		b	.L163
 1391              	.L424:
 1392 0888 4FF40072 		mov	r2, #512
 1393 088c 1BE0     		b	.L163
 1394              	.L423:
 1395 088e 4FF40072 		mov	r2, #512
 1396 0892 18E0     		b	.L163
 1397              	.L422:
 1398 0894 4FF40072 		mov	r2, #512
 1399 0898 15E0     		b	.L163
 1400              	.L421:
 1401 089a 4FF40072 		mov	r2, #512
ARM GAS  /var/folders/m5/1z2v3_dd2cg5xnclvhns6x640000gn/T//ccsZslox.s 			page 35


 1402 089e 12E0     		b	.L163
 1403              	.L420:
 1404 08a0 0822     		movs	r2, #8
 1405 08a2 10E0     		b	.L163
 1406              	.L419:
 1407 08a4 0822     		movs	r2, #8
 1408 08a6 0EE0     		b	.L163
 1409              	.L418:
 1410 08a8 0822     		movs	r2, #8
 1411 08aa 0CE0     		b	.L163
 1412              	.L530:
 1413              		.align	2
 1414              	.L529:
 1415 08ac 00600240 		.word	1073897472
 1416 08b0 58640240 		.word	1073898584
 1417 08b4 00640240 		.word	1073898496
 1418 08b8 B8600240 		.word	1073897656
 1419 08bc 58600240 		.word	1073897560
 1420 08c0 10600240 		.word	1073897488
 1421              	.L417:
 1422 08c4 0822     		movs	r2, #8
 1423              	.L163:
 217:Drivers/STM32F4xx_HAL_Driver/Src/stm32f4xx_hal_dma_ex.c ****     __HAL_DMA_CLEAR_FLAG (hdma, __HAL_DMA_GET_TE_FLAG_INDEX(hdma));
 1424              		.loc 1 217 0 discriminator 25
 1425 08c6 AC4B     		ldr	r3, .L531
 1426 08c8 9A60     		str	r2, [r3, #8]
 1427              	.L135:
 218:Drivers/STM32F4xx_HAL_Driver/Src/stm32f4xx_hal_dma_ex.c ****     __HAL_DMA_CLEAR_FLAG (hdma, __HAL_DMA_GET_DME_FLAG_INDEX(hdma));
 1428              		.loc 1 218 0 is_stmt 1
 1429 08ca 2368     		ldr	r3, [r4]
 1430 08cc AB4A     		ldr	r2, .L531+4
 1431 08ce 9342     		cmp	r3, r2
 1432 08d0 54D9     		bls	.L175
 218:Drivers/STM32F4xx_HAL_Driver/Src/stm32f4xx_hal_dma_ex.c ****     __HAL_DMA_CLEAR_FLAG (hdma, __HAL_DMA_GET_DME_FLAG_INDEX(hdma));
 1433              		.loc 1 218 0 is_stmt 0 discriminator 1
 1434 08d2 A2F58962 		sub	r2, r2, #1096
 1435 08d6 9342     		cmp	r3, r2
 1436 08d8 4CD0     		beq	.L429
 1437 08da 02F58062 		add	r2, r2, #1024
 1438 08de 9342     		cmp	r3, r2
 1439 08e0 46D0     		beq	.L430
 218:Drivers/STM32F4xx_HAL_Driver/Src/stm32f4xx_hal_dma_ex.c ****     __HAL_DMA_CLEAR_FLAG (hdma, __HAL_DMA_GET_DME_FLAG_INDEX(hdma));
 1440              		.loc 1 218 0 discriminator 3
 1441 08e2 A2F56872 		sub	r2, r2, #928
 1442 08e6 9342     		cmp	r3, r2
 1443 08e8 40D0     		beq	.L431
 218:Drivers/STM32F4xx_HAL_Driver/Src/stm32f4xx_hal_dma_ex.c ****     __HAL_DMA_CLEAR_FLAG (hdma, __HAL_DMA_GET_DME_FLAG_INDEX(hdma));
 1444              		.loc 1 218 0 discriminator 5
 1445 08ea 02F58062 		add	r2, r2, #1024
 1446 08ee 9342     		cmp	r3, r2
 1447 08f0 3AD0     		beq	.L432
 218:Drivers/STM32F4xx_HAL_Driver/Src/stm32f4xx_hal_dma_ex.c ****     __HAL_DMA_CLEAR_FLAG (hdma, __HAL_DMA_GET_DME_FLAG_INDEX(hdma));
 1448              		.loc 1 218 0 discriminator 7
 1449 08f2 A2F58962 		sub	r2, r2, #1096
 1450 08f6 9342     		cmp	r3, r2
 1451 08f8 33D0     		beq	.L433
 218:Drivers/STM32F4xx_HAL_Driver/Src/stm32f4xx_hal_dma_ex.c ****     __HAL_DMA_CLEAR_FLAG (hdma, __HAL_DMA_GET_DME_FLAG_INDEX(hdma));
ARM GAS  /var/folders/m5/1z2v3_dd2cg5xnclvhns6x640000gn/T//ccsZslox.s 			page 36


 1452              		.loc 1 218 0 discriminator 9
 1453 08fa 02F58062 		add	r2, r2, #1024
 1454 08fe 9342     		cmp	r3, r2
 1455 0900 2CD0     		beq	.L434
 218:Drivers/STM32F4xx_HAL_Driver/Src/stm32f4xx_hal_dma_ex.c ****     __HAL_DMA_CLEAR_FLAG (hdma, __HAL_DMA_GET_DME_FLAG_INDEX(hdma));
 1456              		.loc 1 218 0 discriminator 11
 1457 0902 A2F56872 		sub	r2, r2, #928
 1458 0906 9342     		cmp	r3, r2
 1459 0908 25D0     		beq	.L435
 218:Drivers/STM32F4xx_HAL_Driver/Src/stm32f4xx_hal_dma_ex.c ****     __HAL_DMA_CLEAR_FLAG (hdma, __HAL_DMA_GET_DME_FLAG_INDEX(hdma));
 1460              		.loc 1 218 0 discriminator 13
 1461 090a 02F58062 		add	r2, r2, #1024
 1462 090e 9342     		cmp	r3, r2
 1463 0910 1ED0     		beq	.L436
 218:Drivers/STM32F4xx_HAL_Driver/Src/stm32f4xx_hal_dma_ex.c ****     __HAL_DMA_CLEAR_FLAG (hdma, __HAL_DMA_GET_DME_FLAG_INDEX(hdma));
 1464              		.loc 1 218 0 discriminator 15
 1465 0912 A2F58962 		sub	r2, r2, #1096
 1466 0916 9342     		cmp	r3, r2
 1467 0918 17D0     		beq	.L437
 218:Drivers/STM32F4xx_HAL_Driver/Src/stm32f4xx_hal_dma_ex.c ****     __HAL_DMA_CLEAR_FLAG (hdma, __HAL_DMA_GET_DME_FLAG_INDEX(hdma));
 1468              		.loc 1 218 0 discriminator 17
 1469 091a 02F58062 		add	r2, r2, #1024
 1470 091e 9342     		cmp	r3, r2
 1471 0920 10D0     		beq	.L438
 218:Drivers/STM32F4xx_HAL_Driver/Src/stm32f4xx_hal_dma_ex.c ****     __HAL_DMA_CLEAR_FLAG (hdma, __HAL_DMA_GET_DME_FLAG_INDEX(hdma));
 1472              		.loc 1 218 0 discriminator 19
 1473 0922 A2F56872 		sub	r2, r2, #928
 1474 0926 9342     		cmp	r3, r2
 1475 0928 08D0     		beq	.L439
 218:Drivers/STM32F4xx_HAL_Driver/Src/stm32f4xx_hal_dma_ex.c ****     __HAL_DMA_CLEAR_FLAG (hdma, __HAL_DMA_GET_DME_FLAG_INDEX(hdma));
 1476              		.loc 1 218 0 discriminator 21
 1477 092a 02F58062 		add	r2, r2, #1024
 1478 092e 9342     		cmp	r3, r2
 1479 0930 14BF     		ite	ne
 1480 0932 4FF08073 		movne	r3, #16777216
 1481 0936 4FF48023 		moveq	r3, #262144
 1482 093a 01E0     		b	.L186
 1483              	.L439:
 218:Drivers/STM32F4xx_HAL_Driver/Src/stm32f4xx_hal_dma_ex.c ****     __HAL_DMA_CLEAR_FLAG (hdma, __HAL_DMA_GET_DME_FLAG_INDEX(hdma));
 1484              		.loc 1 218 0
 1485 093c 4FF48023 		mov	r3, #262144
 1486              	.L186:
 218:Drivers/STM32F4xx_HAL_Driver/Src/stm32f4xx_hal_dma_ex.c ****     __HAL_DMA_CLEAR_FLAG (hdma, __HAL_DMA_GET_DME_FLAG_INDEX(hdma));
 1487              		.loc 1 218 0 discriminator 143
 1488 0940 1A46     		mov	r2, r3
 1489 0942 18E0     		b	.L176
 1490              	.L438:
 218:Drivers/STM32F4xx_HAL_Driver/Src/stm32f4xx_hal_dma_ex.c ****     __HAL_DMA_CLEAR_FLAG (hdma, __HAL_DMA_GET_DME_FLAG_INDEX(hdma));
 1491              		.loc 1 218 0
 1492 0944 4FF48022 		mov	r2, #262144
 1493 0948 15E0     		b	.L176
 1494              	.L437:
 1495 094a 4FF48022 		mov	r2, #262144
 1496 094e 12E0     		b	.L176
 1497              	.L436:
 1498 0950 4FF48072 		mov	r2, #256
 1499 0954 0FE0     		b	.L176
ARM GAS  /var/folders/m5/1z2v3_dd2cg5xnclvhns6x640000gn/T//ccsZslox.s 			page 37


 1500              	.L435:
 1501 0956 4FF48072 		mov	r2, #256
 1502 095a 0CE0     		b	.L176
 1503              	.L434:
 1504 095c 4FF48072 		mov	r2, #256
 1505 0960 09E0     		b	.L176
 1506              	.L433:
 1507 0962 4FF48072 		mov	r2, #256
 1508 0966 06E0     		b	.L176
 1509              	.L432:
 1510 0968 854A     		ldr	r2, .L531+8
 1511 096a 04E0     		b	.L176
 1512              	.L431:
 1513 096c 844A     		ldr	r2, .L531+8
 1514 096e 02E0     		b	.L176
 1515              	.L430:
 1516 0970 834A     		ldr	r2, .L531+8
 1517 0972 00E0     		b	.L176
 1518              	.L429:
 1519 0974 824A     		ldr	r2, .L531+8
 1520              	.L176:
 218:Drivers/STM32F4xx_HAL_Driver/Src/stm32f4xx_hal_dma_ex.c ****     __HAL_DMA_CLEAR_FLAG (hdma, __HAL_DMA_GET_DME_FLAG_INDEX(hdma));
 1521              		.loc 1 218 0 discriminator 153
 1522 0976 834B     		ldr	r3, .L531+12
 1523 0978 DA60     		str	r2, [r3, #12]
 1524 097a 0EE1     		b	.L188
 1525              	.L175:
 218:Drivers/STM32F4xx_HAL_Driver/Src/stm32f4xx_hal_dma_ex.c ****     __HAL_DMA_CLEAR_FLAG (hdma, __HAL_DMA_GET_DME_FLAG_INDEX(hdma));
 1526              		.loc 1 218 0 discriminator 2
 1527 097c 824A     		ldr	r2, .L531+16
 1528 097e 9342     		cmp	r3, r2
 1529 0980 53D9     		bls	.L189
 218:Drivers/STM32F4xx_HAL_Driver/Src/stm32f4xx_hal_dma_ex.c ****     __HAL_DMA_CLEAR_FLAG (hdma, __HAL_DMA_GET_DME_FLAG_INDEX(hdma));
 1530              		.loc 1 218 0 discriminator 1
 1531 0982 A83A     		subs	r2, r2, #168
 1532 0984 9342     		cmp	r3, r2
 1533 0986 4CD0     		beq	.L441
 1534 0988 02F58062 		add	r2, r2, #1024
 1535 098c 9342     		cmp	r3, r2
 1536 098e 46D0     		beq	.L442
 218:Drivers/STM32F4xx_HAL_Driver/Src/stm32f4xx_hal_dma_ex.c ****     __HAL_DMA_CLEAR_FLAG (hdma, __HAL_DMA_GET_DME_FLAG_INDEX(hdma));
 1537              		.loc 1 218 0 discriminator 3
 1538 0990 A2F56872 		sub	r2, r2, #928
 1539 0994 9342     		cmp	r3, r2
 1540 0996 40D0     		beq	.L443
 218:Drivers/STM32F4xx_HAL_Driver/Src/stm32f4xx_hal_dma_ex.c ****     __HAL_DMA_CLEAR_FLAG (hdma, __HAL_DMA_GET_DME_FLAG_INDEX(hdma));
 1541              		.loc 1 218 0 discriminator 5
 1542 0998 02F58062 		add	r2, r2, #1024
 1543 099c 9342     		cmp	r3, r2
 1544 099e 3AD0     		beq	.L444
 218:Drivers/STM32F4xx_HAL_Driver/Src/stm32f4xx_hal_dma_ex.c ****     __HAL_DMA_CLEAR_FLAG (hdma, __HAL_DMA_GET_DME_FLAG_INDEX(hdma));
 1545              		.loc 1 218 0 discriminator 7
 1546 09a0 A2F58962 		sub	r2, r2, #1096
 1547 09a4 9342     		cmp	r3, r2
 1548 09a6 33D0     		beq	.L445
 218:Drivers/STM32F4xx_HAL_Driver/Src/stm32f4xx_hal_dma_ex.c ****     __HAL_DMA_CLEAR_FLAG (hdma, __HAL_DMA_GET_DME_FLAG_INDEX(hdma));
 1549              		.loc 1 218 0 discriminator 9
ARM GAS  /var/folders/m5/1z2v3_dd2cg5xnclvhns6x640000gn/T//ccsZslox.s 			page 38


 1550 09a8 02F58062 		add	r2, r2, #1024
 1551 09ac 9342     		cmp	r3, r2
 1552 09ae 2CD0     		beq	.L446
 218:Drivers/STM32F4xx_HAL_Driver/Src/stm32f4xx_hal_dma_ex.c ****     __HAL_DMA_CLEAR_FLAG (hdma, __HAL_DMA_GET_DME_FLAG_INDEX(hdma));
 1553              		.loc 1 218 0 discriminator 11
 1554 09b0 A2F56872 		sub	r2, r2, #928
 1555 09b4 9342     		cmp	r3, r2
 1556 09b6 25D0     		beq	.L447
 218:Drivers/STM32F4xx_HAL_Driver/Src/stm32f4xx_hal_dma_ex.c ****     __HAL_DMA_CLEAR_FLAG (hdma, __HAL_DMA_GET_DME_FLAG_INDEX(hdma));
 1557              		.loc 1 218 0 discriminator 13
 1558 09b8 02F58062 		add	r2, r2, #1024
 1559 09bc 9342     		cmp	r3, r2
 1560 09be 1ED0     		beq	.L448
 218:Drivers/STM32F4xx_HAL_Driver/Src/stm32f4xx_hal_dma_ex.c ****     __HAL_DMA_CLEAR_FLAG (hdma, __HAL_DMA_GET_DME_FLAG_INDEX(hdma));
 1561              		.loc 1 218 0 discriminator 15
 1562 09c0 A2F58962 		sub	r2, r2, #1096
 1563 09c4 9342     		cmp	r3, r2
 1564 09c6 17D0     		beq	.L449
 218:Drivers/STM32F4xx_HAL_Driver/Src/stm32f4xx_hal_dma_ex.c ****     __HAL_DMA_CLEAR_FLAG (hdma, __HAL_DMA_GET_DME_FLAG_INDEX(hdma));
 1565              		.loc 1 218 0 discriminator 17
 1566 09c8 02F58062 		add	r2, r2, #1024
 1567 09cc 9342     		cmp	r3, r2
 1568 09ce 10D0     		beq	.L450
 218:Drivers/STM32F4xx_HAL_Driver/Src/stm32f4xx_hal_dma_ex.c ****     __HAL_DMA_CLEAR_FLAG (hdma, __HAL_DMA_GET_DME_FLAG_INDEX(hdma));
 1569              		.loc 1 218 0 discriminator 19
 1570 09d0 A2F56872 		sub	r2, r2, #928
 1571 09d4 9342     		cmp	r3, r2
 1572 09d6 08D0     		beq	.L451
 218:Drivers/STM32F4xx_HAL_Driver/Src/stm32f4xx_hal_dma_ex.c ****     __HAL_DMA_CLEAR_FLAG (hdma, __HAL_DMA_GET_DME_FLAG_INDEX(hdma));
 1573              		.loc 1 218 0 discriminator 21
 1574 09d8 02F58062 		add	r2, r2, #1024
 1575 09dc 9342     		cmp	r3, r2
 1576 09de 14BF     		ite	ne
 1577 09e0 4FF08073 		movne	r3, #16777216
 1578 09e4 4FF48023 		moveq	r3, #262144
 1579 09e8 01E0     		b	.L200
 1580              	.L451:
 218:Drivers/STM32F4xx_HAL_Driver/Src/stm32f4xx_hal_dma_ex.c ****     __HAL_DMA_CLEAR_FLAG (hdma, __HAL_DMA_GET_DME_FLAG_INDEX(hdma));
 1581              		.loc 1 218 0
 1582 09ea 4FF48023 		mov	r3, #262144
 1583              	.L200:
 218:Drivers/STM32F4xx_HAL_Driver/Src/stm32f4xx_hal_dma_ex.c ****     __HAL_DMA_CLEAR_FLAG (hdma, __HAL_DMA_GET_DME_FLAG_INDEX(hdma));
 1584              		.loc 1 218 0 discriminator 155
 1585 09ee 1A46     		mov	r2, r3
 1586 09f0 18E0     		b	.L190
 1587              	.L450:
 218:Drivers/STM32F4xx_HAL_Driver/Src/stm32f4xx_hal_dma_ex.c ****     __HAL_DMA_CLEAR_FLAG (hdma, __HAL_DMA_GET_DME_FLAG_INDEX(hdma));
 1588              		.loc 1 218 0
 1589 09f2 4FF48022 		mov	r2, #262144
 1590 09f6 15E0     		b	.L190
 1591              	.L449:
 1592 09f8 4FF48022 		mov	r2, #262144
 1593 09fc 12E0     		b	.L190
 1594              	.L448:
 1595 09fe 4FF48072 		mov	r2, #256
 1596 0a02 0FE0     		b	.L190
 1597              	.L447:
ARM GAS  /var/folders/m5/1z2v3_dd2cg5xnclvhns6x640000gn/T//ccsZslox.s 			page 39


 1598 0a04 4FF48072 		mov	r2, #256
 1599 0a08 0CE0     		b	.L190
 1600              	.L446:
 1601 0a0a 4FF48072 		mov	r2, #256
 1602 0a0e 09E0     		b	.L190
 1603              	.L445:
 1604 0a10 4FF48072 		mov	r2, #256
 1605 0a14 06E0     		b	.L190
 1606              	.L444:
 1607 0a16 5A4A     		ldr	r2, .L531+8
 1608 0a18 04E0     		b	.L190
 1609              	.L443:
 1610 0a1a 594A     		ldr	r2, .L531+8
 1611 0a1c 02E0     		b	.L190
 1612              	.L442:
 1613 0a1e 584A     		ldr	r2, .L531+8
 1614 0a20 00E0     		b	.L190
 1615              	.L441:
 1616 0a22 574A     		ldr	r2, .L531+8
 1617              	.L190:
 218:Drivers/STM32F4xx_HAL_Driver/Src/stm32f4xx_hal_dma_ex.c ****     __HAL_DMA_CLEAR_FLAG (hdma, __HAL_DMA_GET_DME_FLAG_INDEX(hdma));
 1618              		.loc 1 218 0 discriminator 165
 1619 0a24 574B     		ldr	r3, .L531+12
 1620 0a26 9A60     		str	r2, [r3, #8]
 1621 0a28 B7E0     		b	.L188
 1622              	.L189:
 218:Drivers/STM32F4xx_HAL_Driver/Src/stm32f4xx_hal_dma_ex.c ****     __HAL_DMA_CLEAR_FLAG (hdma, __HAL_DMA_GET_DME_FLAG_INDEX(hdma));
 1623              		.loc 1 218 0 discriminator 2
 1624 0a2a 584A     		ldr	r2, .L531+20
 1625 0a2c 9342     		cmp	r3, r2
 1626 0a2e 53D9     		bls	.L202
 218:Drivers/STM32F4xx_HAL_Driver/Src/stm32f4xx_hal_dma_ex.c ****     __HAL_DMA_CLEAR_FLAG (hdma, __HAL_DMA_GET_DME_FLAG_INDEX(hdma));
 1627              		.loc 1 218 0 discriminator 1
 1628 0a30 483A     		subs	r2, r2, #72
 1629 0a32 9342     		cmp	r3, r2
 1630 0a34 4CD0     		beq	.L453
 1631 0a36 02F58062 		add	r2, r2, #1024
 1632 0a3a 9342     		cmp	r3, r2
 1633 0a3c 46D0     		beq	.L454
 218:Drivers/STM32F4xx_HAL_Driver/Src/stm32f4xx_hal_dma_ex.c ****     __HAL_DMA_CLEAR_FLAG (hdma, __HAL_DMA_GET_DME_FLAG_INDEX(hdma));
 1634              		.loc 1 218 0 discriminator 3
 1635 0a3e A2F56872 		sub	r2, r2, #928
 1636 0a42 9342     		cmp	r3, r2
 1637 0a44 40D0     		beq	.L455
 218:Drivers/STM32F4xx_HAL_Driver/Src/stm32f4xx_hal_dma_ex.c ****     __HAL_DMA_CLEAR_FLAG (hdma, __HAL_DMA_GET_DME_FLAG_INDEX(hdma));
 1638              		.loc 1 218 0 discriminator 5
 1639 0a46 02F58062 		add	r2, r2, #1024
 1640 0a4a 9342     		cmp	r3, r2
 1641 0a4c 3AD0     		beq	.L456
 218:Drivers/STM32F4xx_HAL_Driver/Src/stm32f4xx_hal_dma_ex.c ****     __HAL_DMA_CLEAR_FLAG (hdma, __HAL_DMA_GET_DME_FLAG_INDEX(hdma));
 1642              		.loc 1 218 0 discriminator 7
 1643 0a4e A2F58962 		sub	r2, r2, #1096
 1644 0a52 9342     		cmp	r3, r2
 1645 0a54 33D0     		beq	.L457
 218:Drivers/STM32F4xx_HAL_Driver/Src/stm32f4xx_hal_dma_ex.c ****     __HAL_DMA_CLEAR_FLAG (hdma, __HAL_DMA_GET_DME_FLAG_INDEX(hdma));
 1646              		.loc 1 218 0 discriminator 9
 1647 0a56 02F58062 		add	r2, r2, #1024
ARM GAS  /var/folders/m5/1z2v3_dd2cg5xnclvhns6x640000gn/T//ccsZslox.s 			page 40


 1648 0a5a 9342     		cmp	r3, r2
 1649 0a5c 2CD0     		beq	.L458
 218:Drivers/STM32F4xx_HAL_Driver/Src/stm32f4xx_hal_dma_ex.c ****     __HAL_DMA_CLEAR_FLAG (hdma, __HAL_DMA_GET_DME_FLAG_INDEX(hdma));
 1650              		.loc 1 218 0 discriminator 11
 1651 0a5e A2F56872 		sub	r2, r2, #928
 1652 0a62 9342     		cmp	r3, r2
 1653 0a64 25D0     		beq	.L459
 218:Drivers/STM32F4xx_HAL_Driver/Src/stm32f4xx_hal_dma_ex.c ****     __HAL_DMA_CLEAR_FLAG (hdma, __HAL_DMA_GET_DME_FLAG_INDEX(hdma));
 1654              		.loc 1 218 0 discriminator 13
 1655 0a66 02F58062 		add	r2, r2, #1024
 1656 0a6a 9342     		cmp	r3, r2
 1657 0a6c 1ED0     		beq	.L460
 218:Drivers/STM32F4xx_HAL_Driver/Src/stm32f4xx_hal_dma_ex.c ****     __HAL_DMA_CLEAR_FLAG (hdma, __HAL_DMA_GET_DME_FLAG_INDEX(hdma));
 1658              		.loc 1 218 0 discriminator 15
 1659 0a6e A2F58962 		sub	r2, r2, #1096
 1660 0a72 9342     		cmp	r3, r2
 1661 0a74 17D0     		beq	.L461
 218:Drivers/STM32F4xx_HAL_Driver/Src/stm32f4xx_hal_dma_ex.c ****     __HAL_DMA_CLEAR_FLAG (hdma, __HAL_DMA_GET_DME_FLAG_INDEX(hdma));
 1662              		.loc 1 218 0 discriminator 17
 1663 0a76 02F58062 		add	r2, r2, #1024
 1664 0a7a 9342     		cmp	r3, r2
 1665 0a7c 10D0     		beq	.L462
 218:Drivers/STM32F4xx_HAL_Driver/Src/stm32f4xx_hal_dma_ex.c ****     __HAL_DMA_CLEAR_FLAG (hdma, __HAL_DMA_GET_DME_FLAG_INDEX(hdma));
 1666              		.loc 1 218 0 discriminator 19
 1667 0a7e A2F56872 		sub	r2, r2, #928
 1668 0a82 9342     		cmp	r3, r2
 1669 0a84 08D0     		beq	.L463
 218:Drivers/STM32F4xx_HAL_Driver/Src/stm32f4xx_hal_dma_ex.c ****     __HAL_DMA_CLEAR_FLAG (hdma, __HAL_DMA_GET_DME_FLAG_INDEX(hdma));
 1670              		.loc 1 218 0 discriminator 21
 1671 0a86 02F58062 		add	r2, r2, #1024
 1672 0a8a 9342     		cmp	r3, r2
 1673 0a8c 14BF     		ite	ne
 1674 0a8e 4FF08073 		movne	r3, #16777216
 1675 0a92 4FF48023 		moveq	r3, #262144
 1676 0a96 01E0     		b	.L213
 1677              	.L463:
 218:Drivers/STM32F4xx_HAL_Driver/Src/stm32f4xx_hal_dma_ex.c ****     __HAL_DMA_CLEAR_FLAG (hdma, __HAL_DMA_GET_DME_FLAG_INDEX(hdma));
 1678              		.loc 1 218 0
 1679 0a98 4FF48023 		mov	r3, #262144
 1680              	.L213:
 218:Drivers/STM32F4xx_HAL_Driver/Src/stm32f4xx_hal_dma_ex.c ****     __HAL_DMA_CLEAR_FLAG (hdma, __HAL_DMA_GET_DME_FLAG_INDEX(hdma));
 1681              		.loc 1 218 0 discriminator 167
 1682 0a9c 1A46     		mov	r2, r3
 1683 0a9e 18E0     		b	.L203
 1684              	.L462:
 218:Drivers/STM32F4xx_HAL_Driver/Src/stm32f4xx_hal_dma_ex.c ****     __HAL_DMA_CLEAR_FLAG (hdma, __HAL_DMA_GET_DME_FLAG_INDEX(hdma));
 1685              		.loc 1 218 0
 1686 0aa0 4FF48022 		mov	r2, #262144
 1687 0aa4 15E0     		b	.L203
 1688              	.L461:
 1689 0aa6 4FF48022 		mov	r2, #262144
 1690 0aaa 12E0     		b	.L203
 1691              	.L460:
 1692 0aac 4FF48072 		mov	r2, #256
 1693 0ab0 0FE0     		b	.L203
 1694              	.L459:
 1695 0ab2 4FF48072 		mov	r2, #256
ARM GAS  /var/folders/m5/1z2v3_dd2cg5xnclvhns6x640000gn/T//ccsZslox.s 			page 41


 1696 0ab6 0CE0     		b	.L203
 1697              	.L458:
 1698 0ab8 4FF48072 		mov	r2, #256
 1699 0abc 09E0     		b	.L203
 1700              	.L457:
 1701 0abe 4FF48072 		mov	r2, #256
 1702 0ac2 06E0     		b	.L203
 1703              	.L456:
 1704 0ac4 2E4A     		ldr	r2, .L531+8
 1705 0ac6 04E0     		b	.L203
 1706              	.L455:
 1707 0ac8 2D4A     		ldr	r2, .L531+8
 1708 0aca 02E0     		b	.L203
 1709              	.L454:
 1710 0acc 2C4A     		ldr	r2, .L531+8
 1711 0ace 00E0     		b	.L203
 1712              	.L453:
 1713 0ad0 2B4A     		ldr	r2, .L531+8
 1714              	.L203:
 218:Drivers/STM32F4xx_HAL_Driver/Src/stm32f4xx_hal_dma_ex.c ****     __HAL_DMA_CLEAR_FLAG (hdma, __HAL_DMA_GET_DME_FLAG_INDEX(hdma));
 1715              		.loc 1 218 0 discriminator 177
 1716 0ad2 294B     		ldr	r3, .L531
 1717 0ad4 DA60     		str	r2, [r3, #12]
 1718 0ad6 60E0     		b	.L188
 1719              	.L202:
 218:Drivers/STM32F4xx_HAL_Driver/Src/stm32f4xx_hal_dma_ex.c ****     __HAL_DMA_CLEAR_FLAG (hdma, __HAL_DMA_GET_DME_FLAG_INDEX(hdma));
 1720              		.loc 1 218 0 discriminator 2
 1721 0ad8 2D4A     		ldr	r2, .L531+24
 1722 0ada 9342     		cmp	r3, r2
 1723 0adc 5AD0     		beq	.L465
 218:Drivers/STM32F4xx_HAL_Driver/Src/stm32f4xx_hal_dma_ex.c ****     __HAL_DMA_CLEAR_FLAG (hdma, __HAL_DMA_GET_DME_FLAG_INDEX(hdma));
 1724              		.loc 1 218 0 discriminator 1
 1725 0ade 02F58062 		add	r2, r2, #1024
 1726 0ae2 9342     		cmp	r3, r2
 1727 0ae4 46D0     		beq	.L466
 218:Drivers/STM32F4xx_HAL_Driver/Src/stm32f4xx_hal_dma_ex.c ****     __HAL_DMA_CLEAR_FLAG (hdma, __HAL_DMA_GET_DME_FLAG_INDEX(hdma));
 1728              		.loc 1 218 0 discriminator 3
 1729 0ae6 A2F56872 		sub	r2, r2, #928
 1730 0aea 9342     		cmp	r3, r2
 1731 0aec 40D0     		beq	.L467
 218:Drivers/STM32F4xx_HAL_Driver/Src/stm32f4xx_hal_dma_ex.c ****     __HAL_DMA_CLEAR_FLAG (hdma, __HAL_DMA_GET_DME_FLAG_INDEX(hdma));
 1732              		.loc 1 218 0 discriminator 5
 1733 0aee 02F58062 		add	r2, r2, #1024
 1734 0af2 9342     		cmp	r3, r2
 1735 0af4 3AD0     		beq	.L468
 218:Drivers/STM32F4xx_HAL_Driver/Src/stm32f4xx_hal_dma_ex.c ****     __HAL_DMA_CLEAR_FLAG (hdma, __HAL_DMA_GET_DME_FLAG_INDEX(hdma));
 1736              		.loc 1 218 0 discriminator 7
 1737 0af6 A2F58962 		sub	r2, r2, #1096
 1738 0afa 9342     		cmp	r3, r2
 1739 0afc 33D0     		beq	.L469
 218:Drivers/STM32F4xx_HAL_Driver/Src/stm32f4xx_hal_dma_ex.c ****     __HAL_DMA_CLEAR_FLAG (hdma, __HAL_DMA_GET_DME_FLAG_INDEX(hdma));
 1740              		.loc 1 218 0 discriminator 9
 1741 0afe 02F58062 		add	r2, r2, #1024
 1742 0b02 9342     		cmp	r3, r2
 1743 0b04 2CD0     		beq	.L470
 218:Drivers/STM32F4xx_HAL_Driver/Src/stm32f4xx_hal_dma_ex.c ****     __HAL_DMA_CLEAR_FLAG (hdma, __HAL_DMA_GET_DME_FLAG_INDEX(hdma));
 1744              		.loc 1 218 0 discriminator 11
ARM GAS  /var/folders/m5/1z2v3_dd2cg5xnclvhns6x640000gn/T//ccsZslox.s 			page 42


 1745 0b06 A2F56872 		sub	r2, r2, #928
 1746 0b0a 9342     		cmp	r3, r2
 1747 0b0c 25D0     		beq	.L471
 218:Drivers/STM32F4xx_HAL_Driver/Src/stm32f4xx_hal_dma_ex.c ****     __HAL_DMA_CLEAR_FLAG (hdma, __HAL_DMA_GET_DME_FLAG_INDEX(hdma));
 1748              		.loc 1 218 0 discriminator 13
 1749 0b0e 02F58062 		add	r2, r2, #1024
 1750 0b12 9342     		cmp	r3, r2
 1751 0b14 1ED0     		beq	.L472
 218:Drivers/STM32F4xx_HAL_Driver/Src/stm32f4xx_hal_dma_ex.c ****     __HAL_DMA_CLEAR_FLAG (hdma, __HAL_DMA_GET_DME_FLAG_INDEX(hdma));
 1752              		.loc 1 218 0 discriminator 15
 1753 0b16 A2F58962 		sub	r2, r2, #1096
 1754 0b1a 9342     		cmp	r3, r2
 1755 0b1c 17D0     		beq	.L473
 218:Drivers/STM32F4xx_HAL_Driver/Src/stm32f4xx_hal_dma_ex.c ****     __HAL_DMA_CLEAR_FLAG (hdma, __HAL_DMA_GET_DME_FLAG_INDEX(hdma));
 1756              		.loc 1 218 0 discriminator 17
 1757 0b1e 02F58062 		add	r2, r2, #1024
 1758 0b22 9342     		cmp	r3, r2
 1759 0b24 10D0     		beq	.L474
 218:Drivers/STM32F4xx_HAL_Driver/Src/stm32f4xx_hal_dma_ex.c ****     __HAL_DMA_CLEAR_FLAG (hdma, __HAL_DMA_GET_DME_FLAG_INDEX(hdma));
 1760              		.loc 1 218 0 discriminator 19
 1761 0b26 A2F56872 		sub	r2, r2, #928
 1762 0b2a 9342     		cmp	r3, r2
 1763 0b2c 08D0     		beq	.L475
 218:Drivers/STM32F4xx_HAL_Driver/Src/stm32f4xx_hal_dma_ex.c ****     __HAL_DMA_CLEAR_FLAG (hdma, __HAL_DMA_GET_DME_FLAG_INDEX(hdma));
 1764              		.loc 1 218 0 discriminator 21
 1765 0b2e 02F58062 		add	r2, r2, #1024
 1766 0b32 9342     		cmp	r3, r2
 1767 0b34 14BF     		ite	ne
 1768 0b36 4FF08073 		movne	r3, #16777216
 1769 0b3a 4FF48023 		moveq	r3, #262144
 1770 0b3e 01E0     		b	.L226
 1771              	.L475:
 218:Drivers/STM32F4xx_HAL_Driver/Src/stm32f4xx_hal_dma_ex.c ****     __HAL_DMA_CLEAR_FLAG (hdma, __HAL_DMA_GET_DME_FLAG_INDEX(hdma));
 1772              		.loc 1 218 0
 1773 0b40 4FF48023 		mov	r3, #262144
 1774              	.L226:
 218:Drivers/STM32F4xx_HAL_Driver/Src/stm32f4xx_hal_dma_ex.c ****     __HAL_DMA_CLEAR_FLAG (hdma, __HAL_DMA_GET_DME_FLAG_INDEX(hdma));
 1775              		.loc 1 218 0 discriminator 179
 1776 0b44 1A46     		mov	r2, r3
 1777 0b46 26E0     		b	.L216
 1778              	.L474:
 218:Drivers/STM32F4xx_HAL_Driver/Src/stm32f4xx_hal_dma_ex.c ****     __HAL_DMA_CLEAR_FLAG (hdma, __HAL_DMA_GET_DME_FLAG_INDEX(hdma));
 1779              		.loc 1 218 0
 1780 0b48 4FF48022 		mov	r2, #262144
 1781 0b4c 23E0     		b	.L216
 1782              	.L473:
 1783 0b4e 4FF48022 		mov	r2, #262144
 1784 0b52 20E0     		b	.L216
 1785              	.L472:
 1786 0b54 4FF48072 		mov	r2, #256
 1787 0b58 1DE0     		b	.L216
 1788              	.L471:
 1789 0b5a 4FF48072 		mov	r2, #256
 1790 0b5e 1AE0     		b	.L216
 1791              	.L470:
 1792 0b60 4FF48072 		mov	r2, #256
 1793 0b64 17E0     		b	.L216
ARM GAS  /var/folders/m5/1z2v3_dd2cg5xnclvhns6x640000gn/T//ccsZslox.s 			page 43


 1794              	.L469:
 1795 0b66 4FF48072 		mov	r2, #256
 1796 0b6a 14E0     		b	.L216
 1797              	.L468:
 1798 0b6c 044A     		ldr	r2, .L531+8
 1799 0b6e 12E0     		b	.L216
 1800              	.L467:
 1801 0b70 034A     		ldr	r2, .L531+8
 1802 0b72 10E0     		b	.L216
 1803              	.L466:
 1804 0b74 024A     		ldr	r2, .L531+8
 1805 0b76 0EE0     		b	.L216
 1806              	.L532:
 1807              		.align	2
 1808              	.L531:
 1809 0b78 00600240 		.word	1073897472
 1810 0b7c 58640240 		.word	1073898584
 1811 0b80 04008000 		.word	8388612
 1812 0b84 00640240 		.word	1073898496
 1813 0b88 B8600240 		.word	1073897656
 1814 0b8c 58600240 		.word	1073897560
 1815 0b90 10600240 		.word	1073897488
 1816              	.L465:
 1817 0b94 A44A     		ldr	r2, .L533
 1818              	.L216:
 218:Drivers/STM32F4xx_HAL_Driver/Src/stm32f4xx_hal_dma_ex.c ****     __HAL_DMA_CLEAR_FLAG (hdma, __HAL_DMA_GET_DME_FLAG_INDEX(hdma));
 1819              		.loc 1 218 0 discriminator 25
 1820 0b96 A54B     		ldr	r3, .L533+4
 1821 0b98 9A60     		str	r2, [r3, #8]
 1822              	.L188:
 219:Drivers/STM32F4xx_HAL_Driver/Src/stm32f4xx_hal_dma_ex.c ****     __HAL_DMA_CLEAR_FLAG (hdma, __HAL_DMA_GET_FE_FLAG_INDEX(hdma));
 1823              		.loc 1 219 0 is_stmt 1
 1824 0b9a 2368     		ldr	r3, [r4]
 1825 0b9c A44A     		ldr	r2, .L533+8
 1826 0b9e 9342     		cmp	r3, r2
 1827 0ba0 50D9     		bls	.L228
 219:Drivers/STM32F4xx_HAL_Driver/Src/stm32f4xx_hal_dma_ex.c ****     __HAL_DMA_CLEAR_FLAG (hdma, __HAL_DMA_GET_FE_FLAG_INDEX(hdma));
 1828              		.loc 1 219 0 is_stmt 0 discriminator 1
 1829 0ba2 A2F58962 		sub	r2, r2, #1096
 1830 0ba6 9342     		cmp	r3, r2
 1831 0ba8 48D0     		beq	.L477
 1832 0baa 02F58062 		add	r2, r2, #1024
 1833 0bae 9342     		cmp	r3, r2
 1834 0bb0 42D0     		beq	.L478
 219:Drivers/STM32F4xx_HAL_Driver/Src/stm32f4xx_hal_dma_ex.c ****     __HAL_DMA_CLEAR_FLAG (hdma, __HAL_DMA_GET_FE_FLAG_INDEX(hdma));
 1835              		.loc 1 219 0 discriminator 3
 1836 0bb2 A2F56872 		sub	r2, r2, #928
 1837 0bb6 9342     		cmp	r3, r2
 1838 0bb8 3CD0     		beq	.L479
 219:Drivers/STM32F4xx_HAL_Driver/Src/stm32f4xx_hal_dma_ex.c ****     __HAL_DMA_CLEAR_FLAG (hdma, __HAL_DMA_GET_FE_FLAG_INDEX(hdma));
 1839              		.loc 1 219 0 discriminator 5
 1840 0bba 02F58062 		add	r2, r2, #1024
 1841 0bbe 9342     		cmp	r3, r2
 1842 0bc0 36D0     		beq	.L480
 219:Drivers/STM32F4xx_HAL_Driver/Src/stm32f4xx_hal_dma_ex.c ****     __HAL_DMA_CLEAR_FLAG (hdma, __HAL_DMA_GET_FE_FLAG_INDEX(hdma));
 1843              		.loc 1 219 0 discriminator 7
 1844 0bc2 A2F58962 		sub	r2, r2, #1096
ARM GAS  /var/folders/m5/1z2v3_dd2cg5xnclvhns6x640000gn/T//ccsZslox.s 			page 44


 1845 0bc6 9342     		cmp	r3, r2
 1846 0bc8 30D0     		beq	.L481
 219:Drivers/STM32F4xx_HAL_Driver/Src/stm32f4xx_hal_dma_ex.c ****     __HAL_DMA_CLEAR_FLAG (hdma, __HAL_DMA_GET_FE_FLAG_INDEX(hdma));
 1847              		.loc 1 219 0 discriminator 9
 1848 0bca 02F58062 		add	r2, r2, #1024
 1849 0bce 9342     		cmp	r3, r2
 1850 0bd0 2AD0     		beq	.L482
 219:Drivers/STM32F4xx_HAL_Driver/Src/stm32f4xx_hal_dma_ex.c ****     __HAL_DMA_CLEAR_FLAG (hdma, __HAL_DMA_GET_FE_FLAG_INDEX(hdma));
 1851              		.loc 1 219 0 discriminator 11
 1852 0bd2 A2F56872 		sub	r2, r2, #928
 1853 0bd6 9342     		cmp	r3, r2
 1854 0bd8 24D0     		beq	.L483
 219:Drivers/STM32F4xx_HAL_Driver/Src/stm32f4xx_hal_dma_ex.c ****     __HAL_DMA_CLEAR_FLAG (hdma, __HAL_DMA_GET_FE_FLAG_INDEX(hdma));
 1855              		.loc 1 219 0 discriminator 13
 1856 0bda 02F58062 		add	r2, r2, #1024
 1857 0bde 9342     		cmp	r3, r2
 1858 0be0 1ED0     		beq	.L484
 219:Drivers/STM32F4xx_HAL_Driver/Src/stm32f4xx_hal_dma_ex.c ****     __HAL_DMA_CLEAR_FLAG (hdma, __HAL_DMA_GET_FE_FLAG_INDEX(hdma));
 1859              		.loc 1 219 0 discriminator 15
 1860 0be2 A2F58962 		sub	r2, r2, #1096
 1861 0be6 9342     		cmp	r3, r2
 1862 0be8 17D0     		beq	.L485
 219:Drivers/STM32F4xx_HAL_Driver/Src/stm32f4xx_hal_dma_ex.c ****     __HAL_DMA_CLEAR_FLAG (hdma, __HAL_DMA_GET_FE_FLAG_INDEX(hdma));
 1863              		.loc 1 219 0 discriminator 17
 1864 0bea 02F58062 		add	r2, r2, #1024
 1865 0bee 9342     		cmp	r3, r2
 1866 0bf0 10D0     		beq	.L486
 219:Drivers/STM32F4xx_HAL_Driver/Src/stm32f4xx_hal_dma_ex.c ****     __HAL_DMA_CLEAR_FLAG (hdma, __HAL_DMA_GET_FE_FLAG_INDEX(hdma));
 1867              		.loc 1 219 0 discriminator 19
 1868 0bf2 A2F56872 		sub	r2, r2, #928
 1869 0bf6 9342     		cmp	r3, r2
 1870 0bf8 08D0     		beq	.L487
 219:Drivers/STM32F4xx_HAL_Driver/Src/stm32f4xx_hal_dma_ex.c ****     __HAL_DMA_CLEAR_FLAG (hdma, __HAL_DMA_GET_FE_FLAG_INDEX(hdma));
 1871              		.loc 1 219 0 discriminator 21
 1872 0bfa 02F58062 		add	r2, r2, #1024
 1873 0bfe 9342     		cmp	r3, r2
 1874 0c00 14BF     		ite	ne
 1875 0c02 4FF48003 		movne	r3, #4194304
 1876 0c06 4FF48033 		moveq	r3, #65536
 1877 0c0a 01E0     		b	.L239
 1878              	.L487:
 219:Drivers/STM32F4xx_HAL_Driver/Src/stm32f4xx_hal_dma_ex.c ****     __HAL_DMA_CLEAR_FLAG (hdma, __HAL_DMA_GET_FE_FLAG_INDEX(hdma));
 1879              		.loc 1 219 0
 1880 0c0c 4FF48033 		mov	r3, #65536
 1881              	.L239:
 219:Drivers/STM32F4xx_HAL_Driver/Src/stm32f4xx_hal_dma_ex.c ****     __HAL_DMA_CLEAR_FLAG (hdma, __HAL_DMA_GET_FE_FLAG_INDEX(hdma));
 1882              		.loc 1 219 0 discriminator 190
 1883 0c10 1A46     		mov	r2, r3
 1884 0c12 14E0     		b	.L229
 1885              	.L486:
 219:Drivers/STM32F4xx_HAL_Driver/Src/stm32f4xx_hal_dma_ex.c ****     __HAL_DMA_CLEAR_FLAG (hdma, __HAL_DMA_GET_FE_FLAG_INDEX(hdma));
 1886              		.loc 1 219 0
 1887 0c14 4FF48032 		mov	r2, #65536
 1888 0c18 11E0     		b	.L229
 1889              	.L485:
 1890 0c1a 4FF48032 		mov	r2, #65536
 1891 0c1e 0EE0     		b	.L229
ARM GAS  /var/folders/m5/1z2v3_dd2cg5xnclvhns6x640000gn/T//ccsZslox.s 			page 45


 1892              	.L484:
 1893 0c20 4022     		movs	r2, #64
 1894 0c22 0CE0     		b	.L229
 1895              	.L483:
 1896 0c24 4022     		movs	r2, #64
 1897 0c26 0AE0     		b	.L229
 1898              	.L482:
 1899 0c28 4022     		movs	r2, #64
 1900 0c2a 08E0     		b	.L229
 1901              	.L481:
 1902 0c2c 4022     		movs	r2, #64
 1903 0c2e 06E0     		b	.L229
 1904              	.L480:
 1905 0c30 804A     		ldr	r2, .L533+12
 1906 0c32 04E0     		b	.L229
 1907              	.L479:
 1908 0c34 7F4A     		ldr	r2, .L533+12
 1909 0c36 02E0     		b	.L229
 1910              	.L478:
 1911 0c38 7E4A     		ldr	r2, .L533+12
 1912 0c3a 00E0     		b	.L229
 1913              	.L477:
 1914 0c3c 7D4A     		ldr	r2, .L533+12
 1915              	.L229:
 219:Drivers/STM32F4xx_HAL_Driver/Src/stm32f4xx_hal_dma_ex.c ****     __HAL_DMA_CLEAR_FLAG (hdma, __HAL_DMA_GET_FE_FLAG_INDEX(hdma));
 1916              		.loc 1 219 0 discriminator 200
 1917 0c3e 7E4B     		ldr	r3, .L533+16
 1918 0c40 DA60     		str	r2, [r3, #12]
 1919 0c42 04E1     		b	.L241
 1920              	.L228:
 219:Drivers/STM32F4xx_HAL_Driver/Src/stm32f4xx_hal_dma_ex.c ****     __HAL_DMA_CLEAR_FLAG (hdma, __HAL_DMA_GET_FE_FLAG_INDEX(hdma));
 1921              		.loc 1 219 0 discriminator 2
 1922 0c44 7D4A     		ldr	r2, .L533+20
 1923 0c46 9342     		cmp	r3, r2
 1924 0c48 4FD9     		bls	.L242
 219:Drivers/STM32F4xx_HAL_Driver/Src/stm32f4xx_hal_dma_ex.c ****     __HAL_DMA_CLEAR_FLAG (hdma, __HAL_DMA_GET_FE_FLAG_INDEX(hdma));
 1925              		.loc 1 219 0 discriminator 1
 1926 0c4a A83A     		subs	r2, r2, #168
 1927 0c4c 9342     		cmp	r3, r2
 1928 0c4e 48D0     		beq	.L489
 1929 0c50 02F58062 		add	r2, r2, #1024
 1930 0c54 9342     		cmp	r3, r2
 1931 0c56 42D0     		beq	.L490
 219:Drivers/STM32F4xx_HAL_Driver/Src/stm32f4xx_hal_dma_ex.c ****     __HAL_DMA_CLEAR_FLAG (hdma, __HAL_DMA_GET_FE_FLAG_INDEX(hdma));
 1932              		.loc 1 219 0 discriminator 3
 1933 0c58 A2F56872 		sub	r2, r2, #928
 1934 0c5c 9342     		cmp	r3, r2
 1935 0c5e 3CD0     		beq	.L491
 219:Drivers/STM32F4xx_HAL_Driver/Src/stm32f4xx_hal_dma_ex.c ****     __HAL_DMA_CLEAR_FLAG (hdma, __HAL_DMA_GET_FE_FLAG_INDEX(hdma));
 1936              		.loc 1 219 0 discriminator 5
 1937 0c60 02F58062 		add	r2, r2, #1024
 1938 0c64 9342     		cmp	r3, r2
 1939 0c66 36D0     		beq	.L492
 219:Drivers/STM32F4xx_HAL_Driver/Src/stm32f4xx_hal_dma_ex.c ****     __HAL_DMA_CLEAR_FLAG (hdma, __HAL_DMA_GET_FE_FLAG_INDEX(hdma));
 1940              		.loc 1 219 0 discriminator 7
 1941 0c68 A2F58962 		sub	r2, r2, #1096
 1942 0c6c 9342     		cmp	r3, r2
ARM GAS  /var/folders/m5/1z2v3_dd2cg5xnclvhns6x640000gn/T//ccsZslox.s 			page 46


 1943 0c6e 30D0     		beq	.L493
 219:Drivers/STM32F4xx_HAL_Driver/Src/stm32f4xx_hal_dma_ex.c ****     __HAL_DMA_CLEAR_FLAG (hdma, __HAL_DMA_GET_FE_FLAG_INDEX(hdma));
 1944              		.loc 1 219 0 discriminator 9
 1945 0c70 02F58062 		add	r2, r2, #1024
 1946 0c74 9342     		cmp	r3, r2
 1947 0c76 2AD0     		beq	.L494
 219:Drivers/STM32F4xx_HAL_Driver/Src/stm32f4xx_hal_dma_ex.c ****     __HAL_DMA_CLEAR_FLAG (hdma, __HAL_DMA_GET_FE_FLAG_INDEX(hdma));
 1948              		.loc 1 219 0 discriminator 11
 1949 0c78 A2F56872 		sub	r2, r2, #928
 1950 0c7c 9342     		cmp	r3, r2
 1951 0c7e 24D0     		beq	.L495
 219:Drivers/STM32F4xx_HAL_Driver/Src/stm32f4xx_hal_dma_ex.c ****     __HAL_DMA_CLEAR_FLAG (hdma, __HAL_DMA_GET_FE_FLAG_INDEX(hdma));
 1952              		.loc 1 219 0 discriminator 13
 1953 0c80 02F58062 		add	r2, r2, #1024
 1954 0c84 9342     		cmp	r3, r2
 1955 0c86 1ED0     		beq	.L496
 219:Drivers/STM32F4xx_HAL_Driver/Src/stm32f4xx_hal_dma_ex.c ****     __HAL_DMA_CLEAR_FLAG (hdma, __HAL_DMA_GET_FE_FLAG_INDEX(hdma));
 1956              		.loc 1 219 0 discriminator 15
 1957 0c88 A2F58962 		sub	r2, r2, #1096
 1958 0c8c 9342     		cmp	r3, r2
 1959 0c8e 17D0     		beq	.L497
 219:Drivers/STM32F4xx_HAL_Driver/Src/stm32f4xx_hal_dma_ex.c ****     __HAL_DMA_CLEAR_FLAG (hdma, __HAL_DMA_GET_FE_FLAG_INDEX(hdma));
 1960              		.loc 1 219 0 discriminator 17
 1961 0c90 02F58062 		add	r2, r2, #1024
 1962 0c94 9342     		cmp	r3, r2
 1963 0c96 10D0     		beq	.L498
 219:Drivers/STM32F4xx_HAL_Driver/Src/stm32f4xx_hal_dma_ex.c ****     __HAL_DMA_CLEAR_FLAG (hdma, __HAL_DMA_GET_FE_FLAG_INDEX(hdma));
 1964              		.loc 1 219 0 discriminator 19
 1965 0c98 A2F56872 		sub	r2, r2, #928
 1966 0c9c 9342     		cmp	r3, r2
 1967 0c9e 08D0     		beq	.L499
 219:Drivers/STM32F4xx_HAL_Driver/Src/stm32f4xx_hal_dma_ex.c ****     __HAL_DMA_CLEAR_FLAG (hdma, __HAL_DMA_GET_FE_FLAG_INDEX(hdma));
 1968              		.loc 1 219 0 discriminator 21
 1969 0ca0 02F58062 		add	r2, r2, #1024
 1970 0ca4 9342     		cmp	r3, r2
 1971 0ca6 14BF     		ite	ne
 1972 0ca8 4FF48003 		movne	r3, #4194304
 1973 0cac 4FF48033 		moveq	r3, #65536
 1974 0cb0 01E0     		b	.L253
 1975              	.L499:
 219:Drivers/STM32F4xx_HAL_Driver/Src/stm32f4xx_hal_dma_ex.c ****     __HAL_DMA_CLEAR_FLAG (hdma, __HAL_DMA_GET_FE_FLAG_INDEX(hdma));
 1976              		.loc 1 219 0
 1977 0cb2 4FF48033 		mov	r3, #65536
 1978              	.L253:
 219:Drivers/STM32F4xx_HAL_Driver/Src/stm32f4xx_hal_dma_ex.c ****     __HAL_DMA_CLEAR_FLAG (hdma, __HAL_DMA_GET_FE_FLAG_INDEX(hdma));
 1979              		.loc 1 219 0 discriminator 202
 1980 0cb6 1A46     		mov	r2, r3
 1981 0cb8 14E0     		b	.L243
 1982              	.L498:
 219:Drivers/STM32F4xx_HAL_Driver/Src/stm32f4xx_hal_dma_ex.c ****     __HAL_DMA_CLEAR_FLAG (hdma, __HAL_DMA_GET_FE_FLAG_INDEX(hdma));
 1983              		.loc 1 219 0
 1984 0cba 4FF48032 		mov	r2, #65536
 1985 0cbe 11E0     		b	.L243
 1986              	.L497:
 1987 0cc0 4FF48032 		mov	r2, #65536
 1988 0cc4 0EE0     		b	.L243
 1989              	.L496:
ARM GAS  /var/folders/m5/1z2v3_dd2cg5xnclvhns6x640000gn/T//ccsZslox.s 			page 47


 1990 0cc6 4022     		movs	r2, #64
 1991 0cc8 0CE0     		b	.L243
 1992              	.L495:
 1993 0cca 4022     		movs	r2, #64
 1994 0ccc 0AE0     		b	.L243
 1995              	.L494:
 1996 0cce 4022     		movs	r2, #64
 1997 0cd0 08E0     		b	.L243
 1998              	.L493:
 1999 0cd2 4022     		movs	r2, #64
 2000 0cd4 06E0     		b	.L243
 2001              	.L492:
 2002 0cd6 574A     		ldr	r2, .L533+12
 2003 0cd8 04E0     		b	.L243
 2004              	.L491:
 2005 0cda 564A     		ldr	r2, .L533+12
 2006 0cdc 02E0     		b	.L243
 2007              	.L490:
 2008 0cde 554A     		ldr	r2, .L533+12
 2009 0ce0 00E0     		b	.L243
 2010              	.L489:
 2011 0ce2 544A     		ldr	r2, .L533+12
 2012              	.L243:
 219:Drivers/STM32F4xx_HAL_Driver/Src/stm32f4xx_hal_dma_ex.c ****     __HAL_DMA_CLEAR_FLAG (hdma, __HAL_DMA_GET_FE_FLAG_INDEX(hdma));
 2013              		.loc 1 219 0 discriminator 212
 2014 0ce4 544B     		ldr	r3, .L533+16
 2015 0ce6 9A60     		str	r2, [r3, #8]
 2016 0ce8 B1E0     		b	.L241
 2017              	.L242:
 219:Drivers/STM32F4xx_HAL_Driver/Src/stm32f4xx_hal_dma_ex.c ****     __HAL_DMA_CLEAR_FLAG (hdma, __HAL_DMA_GET_FE_FLAG_INDEX(hdma));
 2018              		.loc 1 219 0 discriminator 2
 2019 0cea 554A     		ldr	r2, .L533+24
 2020 0cec 9342     		cmp	r3, r2
 2021 0cee 4FD9     		bls	.L255
 219:Drivers/STM32F4xx_HAL_Driver/Src/stm32f4xx_hal_dma_ex.c ****     __HAL_DMA_CLEAR_FLAG (hdma, __HAL_DMA_GET_FE_FLAG_INDEX(hdma));
 2022              		.loc 1 219 0 discriminator 1
 2023 0cf0 483A     		subs	r2, r2, #72
 2024 0cf2 9342     		cmp	r3, r2
 2025 0cf4 48D0     		beq	.L501
 2026 0cf6 02F58062 		add	r2, r2, #1024
 2027 0cfa 9342     		cmp	r3, r2
 2028 0cfc 42D0     		beq	.L502
 219:Drivers/STM32F4xx_HAL_Driver/Src/stm32f4xx_hal_dma_ex.c ****     __HAL_DMA_CLEAR_FLAG (hdma, __HAL_DMA_GET_FE_FLAG_INDEX(hdma));
 2029              		.loc 1 219 0 discriminator 3
 2030 0cfe A2F56872 		sub	r2, r2, #928
 2031 0d02 9342     		cmp	r3, r2
 2032 0d04 3CD0     		beq	.L503
 219:Drivers/STM32F4xx_HAL_Driver/Src/stm32f4xx_hal_dma_ex.c ****     __HAL_DMA_CLEAR_FLAG (hdma, __HAL_DMA_GET_FE_FLAG_INDEX(hdma));
 2033              		.loc 1 219 0 discriminator 5
 2034 0d06 02F58062 		add	r2, r2, #1024
 2035 0d0a 9342     		cmp	r3, r2
 2036 0d0c 36D0     		beq	.L504
 219:Drivers/STM32F4xx_HAL_Driver/Src/stm32f4xx_hal_dma_ex.c ****     __HAL_DMA_CLEAR_FLAG (hdma, __HAL_DMA_GET_FE_FLAG_INDEX(hdma));
 2037              		.loc 1 219 0 discriminator 7
 2038 0d0e A2F58962 		sub	r2, r2, #1096
 2039 0d12 9342     		cmp	r3, r2
 2040 0d14 30D0     		beq	.L505
ARM GAS  /var/folders/m5/1z2v3_dd2cg5xnclvhns6x640000gn/T//ccsZslox.s 			page 48


 219:Drivers/STM32F4xx_HAL_Driver/Src/stm32f4xx_hal_dma_ex.c ****     __HAL_DMA_CLEAR_FLAG (hdma, __HAL_DMA_GET_FE_FLAG_INDEX(hdma));
 2041              		.loc 1 219 0 discriminator 9
 2042 0d16 02F58062 		add	r2, r2, #1024
 2043 0d1a 9342     		cmp	r3, r2
 2044 0d1c 2AD0     		beq	.L506
 219:Drivers/STM32F4xx_HAL_Driver/Src/stm32f4xx_hal_dma_ex.c ****     __HAL_DMA_CLEAR_FLAG (hdma, __HAL_DMA_GET_FE_FLAG_INDEX(hdma));
 2045              		.loc 1 219 0 discriminator 11
 2046 0d1e A2F56872 		sub	r2, r2, #928
 2047 0d22 9342     		cmp	r3, r2
 2048 0d24 24D0     		beq	.L507
 219:Drivers/STM32F4xx_HAL_Driver/Src/stm32f4xx_hal_dma_ex.c ****     __HAL_DMA_CLEAR_FLAG (hdma, __HAL_DMA_GET_FE_FLAG_INDEX(hdma));
 2049              		.loc 1 219 0 discriminator 13
 2050 0d26 02F58062 		add	r2, r2, #1024
 2051 0d2a 9342     		cmp	r3, r2
 2052 0d2c 1ED0     		beq	.L508
 219:Drivers/STM32F4xx_HAL_Driver/Src/stm32f4xx_hal_dma_ex.c ****     __HAL_DMA_CLEAR_FLAG (hdma, __HAL_DMA_GET_FE_FLAG_INDEX(hdma));
 2053              		.loc 1 219 0 discriminator 15
 2054 0d2e A2F58962 		sub	r2, r2, #1096
 2055 0d32 9342     		cmp	r3, r2
 2056 0d34 17D0     		beq	.L509
 219:Drivers/STM32F4xx_HAL_Driver/Src/stm32f4xx_hal_dma_ex.c ****     __HAL_DMA_CLEAR_FLAG (hdma, __HAL_DMA_GET_FE_FLAG_INDEX(hdma));
 2057              		.loc 1 219 0 discriminator 17
 2058 0d36 02F58062 		add	r2, r2, #1024
 2059 0d3a 9342     		cmp	r3, r2
 2060 0d3c 10D0     		beq	.L510
 219:Drivers/STM32F4xx_HAL_Driver/Src/stm32f4xx_hal_dma_ex.c ****     __HAL_DMA_CLEAR_FLAG (hdma, __HAL_DMA_GET_FE_FLAG_INDEX(hdma));
 2061              		.loc 1 219 0 discriminator 19
 2062 0d3e A2F56872 		sub	r2, r2, #928
 2063 0d42 9342     		cmp	r3, r2
 2064 0d44 08D0     		beq	.L511
 219:Drivers/STM32F4xx_HAL_Driver/Src/stm32f4xx_hal_dma_ex.c ****     __HAL_DMA_CLEAR_FLAG (hdma, __HAL_DMA_GET_FE_FLAG_INDEX(hdma));
 2065              		.loc 1 219 0 discriminator 21
 2066 0d46 02F58062 		add	r2, r2, #1024
 2067 0d4a 9342     		cmp	r3, r2
 2068 0d4c 14BF     		ite	ne
 2069 0d4e 4FF48003 		movne	r3, #4194304
 2070 0d52 4FF48033 		moveq	r3, #65536
 2071 0d56 01E0     		b	.L266
 2072              	.L511:
 219:Drivers/STM32F4xx_HAL_Driver/Src/stm32f4xx_hal_dma_ex.c ****     __HAL_DMA_CLEAR_FLAG (hdma, __HAL_DMA_GET_FE_FLAG_INDEX(hdma));
 2073              		.loc 1 219 0
 2074 0d58 4FF48033 		mov	r3, #65536
 2075              	.L266:
 219:Drivers/STM32F4xx_HAL_Driver/Src/stm32f4xx_hal_dma_ex.c ****     __HAL_DMA_CLEAR_FLAG (hdma, __HAL_DMA_GET_FE_FLAG_INDEX(hdma));
 2076              		.loc 1 219 0 discriminator 214
 2077 0d5c 1A46     		mov	r2, r3
 2078 0d5e 14E0     		b	.L256
 2079              	.L510:
 219:Drivers/STM32F4xx_HAL_Driver/Src/stm32f4xx_hal_dma_ex.c ****     __HAL_DMA_CLEAR_FLAG (hdma, __HAL_DMA_GET_FE_FLAG_INDEX(hdma));
 2080              		.loc 1 219 0
 2081 0d60 4FF48032 		mov	r2, #65536
 2082 0d64 11E0     		b	.L256
 2083              	.L509:
 2084 0d66 4FF48032 		mov	r2, #65536
 2085 0d6a 0EE0     		b	.L256
 2086              	.L508:
 2087 0d6c 4022     		movs	r2, #64
ARM GAS  /var/folders/m5/1z2v3_dd2cg5xnclvhns6x640000gn/T//ccsZslox.s 			page 49


 2088 0d6e 0CE0     		b	.L256
 2089              	.L507:
 2090 0d70 4022     		movs	r2, #64
 2091 0d72 0AE0     		b	.L256
 2092              	.L506:
 2093 0d74 4022     		movs	r2, #64
 2094 0d76 08E0     		b	.L256
 2095              	.L505:
 2096 0d78 4022     		movs	r2, #64
 2097 0d7a 06E0     		b	.L256
 2098              	.L504:
 2099 0d7c 2D4A     		ldr	r2, .L533+12
 2100 0d7e 04E0     		b	.L256
 2101              	.L503:
 2102 0d80 2C4A     		ldr	r2, .L533+12
 2103 0d82 02E0     		b	.L256
 2104              	.L502:
 2105 0d84 2B4A     		ldr	r2, .L533+12
 2106 0d86 00E0     		b	.L256
 2107              	.L501:
 2108 0d88 2A4A     		ldr	r2, .L533+12
 2109              	.L256:
 219:Drivers/STM32F4xx_HAL_Driver/Src/stm32f4xx_hal_dma_ex.c ****     __HAL_DMA_CLEAR_FLAG (hdma, __HAL_DMA_GET_FE_FLAG_INDEX(hdma));
 2110              		.loc 1 219 0 discriminator 224
 2111 0d8a 284B     		ldr	r3, .L533+4
 2112 0d8c DA60     		str	r2, [r3, #12]
 2113 0d8e 5EE0     		b	.L241
 2114              	.L255:
 219:Drivers/STM32F4xx_HAL_Driver/Src/stm32f4xx_hal_dma_ex.c ****     __HAL_DMA_CLEAR_FLAG (hdma, __HAL_DMA_GET_FE_FLAG_INDEX(hdma));
 2115              		.loc 1 219 0 discriminator 2
 2116 0d90 2C4A     		ldr	r2, .L533+28
 2117 0d92 9342     		cmp	r3, r2
 2118 0d94 58D0     		beq	.L513
 219:Drivers/STM32F4xx_HAL_Driver/Src/stm32f4xx_hal_dma_ex.c ****     __HAL_DMA_CLEAR_FLAG (hdma, __HAL_DMA_GET_FE_FLAG_INDEX(hdma));
 2119              		.loc 1 219 0 discriminator 1
 2120 0d96 02F58062 		add	r2, r2, #1024
 2121 0d9a 9342     		cmp	r3, r2
 2122 0d9c 42D0     		beq	.L514
 219:Drivers/STM32F4xx_HAL_Driver/Src/stm32f4xx_hal_dma_ex.c ****     __HAL_DMA_CLEAR_FLAG (hdma, __HAL_DMA_GET_FE_FLAG_INDEX(hdma));
 2123              		.loc 1 219 0 discriminator 3
 2124 0d9e A2F56872 		sub	r2, r2, #928
 2125 0da2 9342     		cmp	r3, r2
 2126 0da4 3CD0     		beq	.L515
 219:Drivers/STM32F4xx_HAL_Driver/Src/stm32f4xx_hal_dma_ex.c ****     __HAL_DMA_CLEAR_FLAG (hdma, __HAL_DMA_GET_FE_FLAG_INDEX(hdma));
 2127              		.loc 1 219 0 discriminator 5
 2128 0da6 02F58062 		add	r2, r2, #1024
 2129 0daa 9342     		cmp	r3, r2
 2130 0dac 36D0     		beq	.L516
 219:Drivers/STM32F4xx_HAL_Driver/Src/stm32f4xx_hal_dma_ex.c ****     __HAL_DMA_CLEAR_FLAG (hdma, __HAL_DMA_GET_FE_FLAG_INDEX(hdma));
 2131              		.loc 1 219 0 discriminator 7
 2132 0dae A2F58962 		sub	r2, r2, #1096
 2133 0db2 9342     		cmp	r3, r2
 2134 0db4 30D0     		beq	.L517
 219:Drivers/STM32F4xx_HAL_Driver/Src/stm32f4xx_hal_dma_ex.c ****     __HAL_DMA_CLEAR_FLAG (hdma, __HAL_DMA_GET_FE_FLAG_INDEX(hdma));
 2135              		.loc 1 219 0 discriminator 9
 2136 0db6 02F58062 		add	r2, r2, #1024
 2137 0dba 9342     		cmp	r3, r2
ARM GAS  /var/folders/m5/1z2v3_dd2cg5xnclvhns6x640000gn/T//ccsZslox.s 			page 50


 2138 0dbc 2AD0     		beq	.L518
 219:Drivers/STM32F4xx_HAL_Driver/Src/stm32f4xx_hal_dma_ex.c ****     __HAL_DMA_CLEAR_FLAG (hdma, __HAL_DMA_GET_FE_FLAG_INDEX(hdma));
 2139              		.loc 1 219 0 discriminator 11
 2140 0dbe A2F56872 		sub	r2, r2, #928
 2141 0dc2 9342     		cmp	r3, r2
 2142 0dc4 24D0     		beq	.L519
 219:Drivers/STM32F4xx_HAL_Driver/Src/stm32f4xx_hal_dma_ex.c ****     __HAL_DMA_CLEAR_FLAG (hdma, __HAL_DMA_GET_FE_FLAG_INDEX(hdma));
 2143              		.loc 1 219 0 discriminator 13
 2144 0dc6 02F58062 		add	r2, r2, #1024
 2145 0dca 9342     		cmp	r3, r2
 2146 0dcc 1ED0     		beq	.L520
 219:Drivers/STM32F4xx_HAL_Driver/Src/stm32f4xx_hal_dma_ex.c ****     __HAL_DMA_CLEAR_FLAG (hdma, __HAL_DMA_GET_FE_FLAG_INDEX(hdma));
 2147              		.loc 1 219 0 discriminator 15
 2148 0dce A2F58962 		sub	r2, r2, #1096
 2149 0dd2 9342     		cmp	r3, r2
 2150 0dd4 17D0     		beq	.L521
 219:Drivers/STM32F4xx_HAL_Driver/Src/stm32f4xx_hal_dma_ex.c ****     __HAL_DMA_CLEAR_FLAG (hdma, __HAL_DMA_GET_FE_FLAG_INDEX(hdma));
 2151              		.loc 1 219 0 discriminator 17
 2152 0dd6 02F58062 		add	r2, r2, #1024
 2153 0dda 9342     		cmp	r3, r2
 2154 0ddc 10D0     		beq	.L522
 219:Drivers/STM32F4xx_HAL_Driver/Src/stm32f4xx_hal_dma_ex.c ****     __HAL_DMA_CLEAR_FLAG (hdma, __HAL_DMA_GET_FE_FLAG_INDEX(hdma));
 2155              		.loc 1 219 0 discriminator 19
 2156 0dde A2F56872 		sub	r2, r2, #928
 2157 0de2 9342     		cmp	r3, r2
 2158 0de4 08D0     		beq	.L523
 219:Drivers/STM32F4xx_HAL_Driver/Src/stm32f4xx_hal_dma_ex.c ****     __HAL_DMA_CLEAR_FLAG (hdma, __HAL_DMA_GET_FE_FLAG_INDEX(hdma));
 2159              		.loc 1 219 0 discriminator 21
 2160 0de6 02F58062 		add	r2, r2, #1024
 2161 0dea 9342     		cmp	r3, r2
 2162 0dec 14BF     		ite	ne
 2163 0dee 4FF48003 		movne	r3, #4194304
 2164 0df2 4FF48033 		moveq	r3, #65536
 2165 0df6 01E0     		b	.L279
 2166              	.L523:
 219:Drivers/STM32F4xx_HAL_Driver/Src/stm32f4xx_hal_dma_ex.c ****     __HAL_DMA_CLEAR_FLAG (hdma, __HAL_DMA_GET_FE_FLAG_INDEX(hdma));
 2167              		.loc 1 219 0
 2168 0df8 4FF48033 		mov	r3, #65536
 2169              	.L279:
 219:Drivers/STM32F4xx_HAL_Driver/Src/stm32f4xx_hal_dma_ex.c ****     __HAL_DMA_CLEAR_FLAG (hdma, __HAL_DMA_GET_FE_FLAG_INDEX(hdma));
 2170              		.loc 1 219 0 discriminator 226
 2171 0dfc 1A46     		mov	r2, r3
 2172 0dfe 24E0     		b	.L269
 2173              	.L522:
 219:Drivers/STM32F4xx_HAL_Driver/Src/stm32f4xx_hal_dma_ex.c ****     __HAL_DMA_CLEAR_FLAG (hdma, __HAL_DMA_GET_FE_FLAG_INDEX(hdma));
 2174              		.loc 1 219 0
 2175 0e00 4FF48032 		mov	r2, #65536
 2176 0e04 21E0     		b	.L269
 2177              	.L521:
 2178 0e06 4FF48032 		mov	r2, #65536
 2179 0e0a 1EE0     		b	.L269
 2180              	.L520:
 2181 0e0c 4022     		movs	r2, #64
 2182 0e0e 1CE0     		b	.L269
 2183              	.L519:
 2184 0e10 4022     		movs	r2, #64
 2185 0e12 1AE0     		b	.L269
ARM GAS  /var/folders/m5/1z2v3_dd2cg5xnclvhns6x640000gn/T//ccsZslox.s 			page 51


 2186              	.L518:
 2187 0e14 4022     		movs	r2, #64
 2188 0e16 18E0     		b	.L269
 2189              	.L517:
 2190 0e18 4022     		movs	r2, #64
 2191 0e1a 16E0     		b	.L269
 2192              	.L516:
 2193 0e1c 054A     		ldr	r2, .L533+12
 2194 0e1e 14E0     		b	.L269
 2195              	.L515:
 2196 0e20 044A     		ldr	r2, .L533+12
 2197 0e22 12E0     		b	.L269
 2198              	.L514:
 2199 0e24 034A     		ldr	r2, .L533+12
 2200 0e26 10E0     		b	.L269
 2201              	.L534:
 2202              		.align	2
 2203              	.L533:
 2204 0e28 04008000 		.word	8388612
 2205 0e2c 00600240 		.word	1073897472
 2206 0e30 58640240 		.word	1073898584
 2207 0e34 01008000 		.word	8388609
 2208 0e38 00640240 		.word	1073898496
 2209 0e3c B8600240 		.word	1073897656
 2210 0e40 58600240 		.word	1073897560
 2211 0e44 10600240 		.word	1073897488
 2212              	.L513:
 2213 0e48 114A     		ldr	r2, .L535
 2214              	.L269:
 219:Drivers/STM32F4xx_HAL_Driver/Src/stm32f4xx_hal_dma_ex.c ****     __HAL_DMA_CLEAR_FLAG (hdma, __HAL_DMA_GET_FE_FLAG_INDEX(hdma));
 2215              		.loc 1 219 0 discriminator 25
 2216 0e4a 124B     		ldr	r3, .L535+4
 2217 0e4c 9A60     		str	r2, [r3, #8]
 2218              	.L241:
 222:Drivers/STM32F4xx_HAL_Driver/Src/stm32f4xx_hal_dma_ex.c ****     hdma->Instance->CR  |= DMA_IT_TC | DMA_IT_TE | DMA_IT_DME;
 2219              		.loc 1 222 0 is_stmt 1
 2220 0e4e 2368     		ldr	r3, [r4]
 2221 0e50 1A68     		ldr	r2, [r3]
 2222 0e52 42F01602 		orr	r2, r2, #22
 2223 0e56 1A60     		str	r2, [r3]
 223:Drivers/STM32F4xx_HAL_Driver/Src/stm32f4xx_hal_dma_ex.c ****     hdma->Instance->FCR |= DMA_IT_FE;
 2224              		.loc 1 223 0
 2225 0e58 2368     		ldr	r3, [r4]
 2226 0e5a 5A69     		ldr	r2, [r3, #20]
 2227 0e5c 42F08002 		orr	r2, r2, #128
 2228 0e60 5A61     		str	r2, [r3, #20]
 225:Drivers/STM32F4xx_HAL_Driver/Src/stm32f4xx_hal_dma_ex.c ****     if((hdma->XferHalfCpltCallback != NULL) || (hdma->XferM1HalfCpltCallback != NULL))
 2229              		.loc 1 225 0
 2230 0e62 236C     		ldr	r3, [r4, #64]
 2231 0e64 0BB9     		cbnz	r3, .L281
 225:Drivers/STM32F4xx_HAL_Driver/Src/stm32f4xx_hal_dma_ex.c ****     if((hdma->XferHalfCpltCallback != NULL) || (hdma->XferM1HalfCpltCallback != NULL))
 2232              		.loc 1 225 0 is_stmt 0 discriminator 1
 2233 0e66 A36C     		ldr	r3, [r4, #72]
 2234 0e68 23B1     		cbz	r3, .L282
 2235              	.L281:
 227:Drivers/STM32F4xx_HAL_Driver/Src/stm32f4xx_hal_dma_ex.c ****       hdma->Instance->CR  |= DMA_IT_HT;
 2236              		.loc 1 227 0 is_stmt 1
ARM GAS  /var/folders/m5/1z2v3_dd2cg5xnclvhns6x640000gn/T//ccsZslox.s 			page 52


 2237 0e6a 2368     		ldr	r3, [r4]
 2238 0e6c 1A68     		ldr	r2, [r3]
 2239 0e6e 42F00802 		orr	r2, r2, #8
 2240 0e72 1A60     		str	r2, [r3]
 2241              	.L282:
 231:Drivers/STM32F4xx_HAL_Driver/Src/stm32f4xx_hal_dma_ex.c ****     __HAL_DMA_ENABLE(hdma); 
 2242              		.loc 1 231 0
 2243 0e74 2368     		ldr	r3, [r4]
 2244 0e76 1A68     		ldr	r2, [r3]
 2245 0e78 42F00102 		orr	r2, r2, #1
 2246 0e7c 1A60     		str	r2, [r3]
 175:Drivers/STM32F4xx_HAL_Driver/Src/stm32f4xx_hal_dma_ex.c ****   HAL_StatusTypeDef status = HAL_OK;
 2247              		.loc 1 175 0
 2248 0e7e 0020     		movs	r0, #0
 2249 0e80 38BD     		pop	{r3, r4, r5, pc}
 2250              	.LVL25:
 2251              	.L15:
 236:Drivers/STM32F4xx_HAL_Driver/Src/stm32f4xx_hal_dma_ex.c ****     __HAL_UNLOCK(hdma);	  
 2252              		.loc 1 236 0
 2253 0e82 0023     		movs	r3, #0
 2254              	.LVL26:
 2255 0e84 84F83430 		strb	r3, [r4, #52]
 2256              	.LVL27:
 239:Drivers/STM32F4xx_HAL_Driver/Src/stm32f4xx_hal_dma_ex.c ****     status = HAL_BUSY;
 2257              		.loc 1 239 0
 2258 0e88 0220     		movs	r0, #2
 2259              	.LVL28:
 241:Drivers/STM32F4xx_HAL_Driver/Src/stm32f4xx_hal_dma_ex.c ****   return status; 
 2260              		.loc 1 241 0
 2261 0e8a 38BD     		pop	{r3, r4, r5, pc}
 2262              	.LVL29:
 2263              	.L284:
 195:Drivers/STM32F4xx_HAL_Driver/Src/stm32f4xx_hal_dma_ex.c ****   __HAL_LOCK(hdma);
 2264              		.loc 1 195 0
 2265 0e8c 0220     		movs	r0, #2
 242:Drivers/STM32F4xx_HAL_Driver/Src/stm32f4xx_hal_dma_ex.c **** }
 2266              		.loc 1 242 0
 2267 0e8e 38BD     		pop	{r3, r4, r5, pc}
 2268              	.LVL30:
 2269              	.L536:
 2270              		.align	2
 2271              	.L535:
 2272 0e90 01008000 		.word	8388609
 2273 0e94 00600240 		.word	1073897472
 2274              		.cfi_endproc
 2275              	.LFE124:
 2277              		.section	.text.HAL_DMAEx_ChangeMemory,"ax",%progbits
 2278              		.align	2
 2279              		.global	HAL_DMAEx_ChangeMemory
 2280              		.thumb
 2281              		.thumb_func
 2283              	HAL_DMAEx_ChangeMemory:
 2284              	.LFB125:
 259:Drivers/STM32F4xx_HAL_Driver/Src/stm32f4xx_hal_dma_ex.c **** {
 2285              		.loc 1 259 0
 2286              		.cfi_startproc
 2287              		@ args = 0, pretend = 0, frame = 0
ARM GAS  /var/folders/m5/1z2v3_dd2cg5xnclvhns6x640000gn/T//ccsZslox.s 			page 53


 2288              		@ frame_needed = 0, uses_anonymous_args = 0
 2289              		@ link register save eliminated.
 2290              	.LVL31:
 260:Drivers/STM32F4xx_HAL_Driver/Src/stm32f4xx_hal_dma_ex.c ****   if(memory == MEMORY0)
 2291              		.loc 1 260 0
 2292 0000 12B9     		cbnz	r2, .L538
 263:Drivers/STM32F4xx_HAL_Driver/Src/stm32f4xx_hal_dma_ex.c ****     hdma->Instance->M0AR = Address;
 2293              		.loc 1 263 0
 2294 0002 0368     		ldr	r3, [r0]
 2295 0004 D960     		str	r1, [r3, #12]
 2296 0006 01E0     		b	.L539
 2297              	.L538:
 268:Drivers/STM32F4xx_HAL_Driver/Src/stm32f4xx_hal_dma_ex.c ****     hdma->Instance->M1AR = Address;
 2298              		.loc 1 268 0
 2299 0008 0368     		ldr	r3, [r0]
 2300 000a 1961     		str	r1, [r3, #16]
 2301              	.L539:
 272:Drivers/STM32F4xx_HAL_Driver/Src/stm32f4xx_hal_dma_ex.c **** }
 2302              		.loc 1 272 0
 2303 000c 0020     		movs	r0, #0
 2304              	.LVL32:
 2305 000e 7047     		bx	lr
 2306              		.cfi_endproc
 2307              	.LFE125:
 2309              		.text
 2310              	.Letext0:
 2311              		.file 2 "/Users/tattaka/gcc-arm-none-eabi-4_8-2013q4/arm-none-eabi/include/stdint.h"
 2312              		.file 3 "Drivers/CMSIS/Device/ST/STM32F4xx/Include/stm32f401xe.h"
 2313              		.file 4 "Drivers/STM32F4xx_HAL_Driver/Inc/stm32f4xx_hal_def.h"
 2314              		.file 5 "Drivers/STM32F4xx_HAL_Driver/Inc/stm32f4xx_hal_dma.h"
 2315              		.file 6 "Drivers/STM32F4xx_HAL_Driver/Inc/stm32f4xx_hal_dma_ex.h"
 2316              		.file 7 "Drivers/CMSIS/Include/core_cm4.h"
ARM GAS  /var/folders/m5/1z2v3_dd2cg5xnclvhns6x640000gn/T//ccsZslox.s 			page 54

